Feel Free To Implement All This Functions By Yourself


228ecfb0 t _CPSqliteConnectionPerformSQL$shim
228a6b30 T _CTCallAddressBlocked
228a5da8 T _CTCallAnswer
228a606c T _CTCallAnswerEndingActive
228a6064 T _CTCallAnswerEndingActiveWithSourceIdentifier
228a6074 T _CTCallAnswerEndingHeld
228a5e3c T _CTCallAnswerWithOptions
228a5db0 T _CTCallAnswerWithSourceIdentifier
228a6a34 T _CTCallCopyAddress
228a6a94 T _CTCallCopyCountryCode
228a766c T _CTCallCopyISOCountryCode
228a6a64 T _CTCallCopyName
228a6b00 T _CTCallCopyNetworkCode
228a6d08 T _CTCallCopyUUID
228a6d30 T _CTCallCopyUniqueStringID
228a6424 T _CTCallCreateCallRef
228a7908 T _CTCallCreateFromSerializedData
228a5bec T _CTCallDial
228a5c08 T _CTCallDialAny
228a5a90 T _CTCallDialEmergency
228a75b4 T _CTCallDialService
228a5bb0 T _CTCallDialVoicemail
228a5bd0 T _CTCallDialWithAssist
228a5b94 T _CTCallDialWithID
228a5b78 T _CTCallDialWithIDAndSourceIdentifier
228a5c0c T _CTCallDialWithOptions
228a5b58 T _CTCallDialWithSourceIdentifier
228a6964 T _CTCallDidDeviceOriginateEnd
228a6150 T _CTCallDisconnect
228a61b8 T _CTCallDisconnectWithCauseCode
228a6858 T _CTCallEndVideoConference
228a6a10 T _CTCallGetCallSubType
228a69ec T _CTCallGetCallType
228a6c50 T _CTCallGetCauseCode
228a6c6c T _CTCallGetCauseCodeString
228a6be8 T _CTCallGetDuration
228a74c4 T _CTCallGetEmergencyStatus
228a6d70 T _CTCallGetID
228a6ce8 T _CTCallGetMultiPartyCallCountMax
228a6ba0 T _CTCallGetStartTime
228a5e0c T _CTCallGetStatus
228a5824 T _CTCallGetTypeID
228a623c T _CTCallHold
228a6b54 T _CTCallIsAlerting
228a78d8 T _CTCallIsCallHandoffPossible
228a69ac T _CTCallIsConferenced
228a698c T _CTCallIsOutgoing
228a69cc T _CTCallIsToVoicemail
228a6b78 T _CTCallIsWaiting
228a62f8 T _CTCallJoinConference
228a6334 T _CTCallLeaveConference
228a61f4 T _CTCallListDisconnect
228a621c T _CTCallListDisconnectAll
228a7930 T _CTCallMediaStatusIsActive
228a7924 T _CTCallPhoneNumberIsMmiOrUssd
228a76a4 T _CTCallPullCallFromOtherDevice
228a6284 T _CTCallResume
228a753c t _CTCallSetAudioToneRelayFlag
228a6894 T _CTCallSetCallEndTime
228a650c T _CTCallSetCallInfo
228a65a8 T _CTCallSetCallStartTime
228a6608 T _CTCallSetCallStatus
228a758c t _CTCallSetDeviceOriginatedEndFlag
228a7564 t _CTCallSetSetupAudioInterruptionFlag
228a6914 T _CTCallShouldPlayAudioTone
228a693c T _CTCallShouldSetupAudioInterruption
228a5d6c t _CTCallSourceToCCCallSourceMode
228a636c T _CTCallStartVideoConference
343b9a90 S _CTCallStateConnected
343b9a88 S _CTCallStateDialing
343b9a94 S _CTCallStateDisconnected
343b9a8c S _CTCallStateIncoming
228a62c4 T _CTCallSwap
228a607c T _CTCallSwitchCallSource
228a6120 T _CTCallSwitchCallSourceAll
343b9a08 S _CTCellIdDidChangeNotification
228c6a08 T _CTCellularDataPlanAccountIsNew
228c6a4c T _CTCellularDataPlanAccountUpdated
228c6a2c T _CTCellularDataPlanCopyAccountUrlString
228c6aa8 T _CTCellularDataPlanCopyDeviceInfo
228c6a84 T _CTCellularDataPlanGetIsEnabled
228c6a68 T _CTCellularDataPlanSetIsEnabled
228c6ac8 T _CTCellularDataPlanSetWebsheetVisibility
228c2204 T _CTChannelBypassShimActivate
228a74e8 T _CTCopyCallManagementState
228a5920 T _CTCopyCurrentCalls
228a5a14 T _CTCopyCurrentCallsWithTypes
228a7750 T _CTCreateCallInfoForHandoffCall
228a57d8 T _CTDTMFCancelHardPause
228a57b4 T _CTDTMFCopyHardPauseDigits
228a5768 T _CTDTMFPlayStart
228a5784 T _CTDTMFPlayStop
228a579c T _CTDTMFSendDigitsNow
228aaa9c T _CTGetBatteryCapacity
228a5a30 T _CTGetCurrentCallCount
228a5a80 T _CTGetCurrentCallCountWithTypes
228aaa44 T _CTGetSignalStrength
228aab00 T _CTGetUnconditionalCallForwardingEnabled
228aaabc T _CTGetVoiceMailAvailable
228aab24 T _CTIndicatorsCopyVoicemailStatus
228aaa60 T _CTIndicatorsGetSignalStrength
343b99e8 S _CTRadioAccessTechnologyCDMA1x
343b99ec S _CTRadioAccessTechnologyCDMAEVDORev0
343b99f0 S _CTRadioAccessTechnologyCDMAEVDORevA
343b99fc S _CTRadioAccessTechnologyCDMAEVDORevB
343b99d0 S _CTRadioAccessTechnologyDidChangeNotification
343b99d8 S _CTRadioAccessTechnologyEdge
343b99d4 S _CTRadioAccessTechnologyGPRS
343b99e0 S _CTRadioAccessTechnologyHSDPA
343b99e4 S _CTRadioAccessTechnologyHSUPA
343b99f8 S _CTRadioAccessTechnologyLTE
343b99dc S _CTRadioAccessTechnologyWCDMA
343b9a0c S _CTRadioAccessTechnologyWCMDA
343b99f4 S _CTRadioAccessTechnologyeHRPD
228abb40 T _CTRegistrationAutomaticallySelectNetwork
228ac018 T _CTRegistrationCellularDataPlanAccountUpdated
228abab4 T _CTRegistrationCopyAbbreviatedOperatorName
228abcf8 T _CTRegistrationCopyDataStatus
228ac29c T _CTRegistrationCopyISOCountryCodeForMobileCountryCode
228aba94 T _CTRegistrationCopyLocalizedOperatorName
228abbb4 T _CTRegistrationCopyManualNetworkSelection
228ac278 T _CTRegistrationCopyMobileCountryCodesForISOCountryCode
228aba60 T _CTRegistrationCopyOperatorName
228abae8 T _CTRegistrationCopyServiceProviderName
228ac1d0 T _CTRegistrationCopySupportedDataRates
228abdf8 T _CTRegistrationDataCounterGetAllStatistics
228abdfc T _CTRegistrationDataCounterGetAllStatisticsForServiceType
228abd90 T _CTRegistrationDataCounterGetCurrentStatistics
228abe04 T _CTRegistrationDataCounterGetLastResetTime
228abdf4 T _CTRegistrationDataCounterGetLastStatistics
228abe00 T _CTRegistrationDataCounterReset
228ac0c8 T _CTRegistrationEnableEmergencyCallBackMode
228ac160 T _CTRegistrationGetCDMAInternationalRoaming
228ac020 T _CTRegistrationGetCellularDataIsEnabled
228ac200 T _CTRegistrationGetCurrentMaxAllowedDataRate
228abc78 T _CTRegistrationGetDataAttached
228abd48 T _CTRegistrationGetDataContextActive
228abc9c T _CTRegistrationGetDataIndicator
228ac0a4 T _CTRegistrationGetEULocalBreakOutEnabled
228ac0e4 T _CTRegistrationGetEmergencyCallBackMode
228ac040 T _CTRegistrationGetInternationalDataAccessStatus
228abc18 T _CTRegistrationGetNetworkSelectionMode
228abc48 T _CTRegistrationGetNetworkSelectionState
228aba34 T _CTRegistrationGetStatus
228ac12c T _CTRegistrationIsCDMAInternationalRoamingSettingAllowed
228ac064 T _CTRegistrationIsEULocalBreakOutAvailable
228ac108 T _CTRegistrationIsInE911OverLTEMode
228abb88 T _CTRegistrationManuallySelectNetwork
228abbe4 T _CTRegistrationNetworkNeedReselect
228abb1c T _CTRegistrationNetworkSelectionMenuAvailable
228abb64 T _CTRegistrationRequestNetworkList
228ac194 T _CTRegistrationSetCDMAInternationalRoaming
228ac01c T _CTRegistrationSetCellularDataIsEnabled
228abd70 T _CTRegistrationSetDataContextActive
228ac088 T _CTRegistrationSetEULocalBreakOutEnabled
228ac024 T _CTRegistrationSetInternationalDataAccessStatus
228ac23c T _CTRegistrationSetMaxAllowedDataRate
228ab9cc T _CTSIMSupportCopyMobileSubscriberCountryCode
228ab998 T _CTSIMSupportCopyMobileSubscriberIdentity
228aba00 T _CTSIMSupportCopyMobileSubscriberNetworkCode
228ab958 T _CTSIMSupportGetRemainingPINAttempts
228ab978 T _CTSIMSupportGetRemainingPUKAttempts
228ab8fc T _CTSIMSupportGetSIMStatus
228ab91c T _CTSIMSupportPINUnlock
228ab938 T _CTSIMSupportPUKUnlock
228ab628 T _CTSettingCopyDualIPBringUp
228ab740 T _CTSettingCopyEPDGAddress
228ab408 T _CTSettingCopyEffectiveSimInfo
228ab480 T _CTSettingCopyFakePrimaryDNSKey
228ab4cc T _CTSettingCopyFakeSecondaryDNSKey
228ab240 T _CTSettingCopyMyPhoneNumber
228ab298 T _CTSettingCopyMyPhoneNumberExtended
228ab768 T _CTSettingCopyPCSCFAddress
228ab8b0 T _CTSettingCopyShowMoringaStatusIndicator
228ab7d4 T _CTSettingCopyShowVoLTEStatusIndicator
228ab5b0 T _CTSettingCopyVerifyAPN
228ab538 T _CTSettingCopyVerifyCarrierBundles
228ab6a0 T _CTSettingCopyWiFiCallingInCallHandover
228aac68 T _CTSettingRequest
228aae7c T _CTSettingSave
228ab5e4 T _CTSettingSetDualIPBringUp
228ab6f8 T _CTSettingSetEPDGAddress
228ab45c T _CTSettingSetFakePrimaryDNSKey
228ab4a8 T _CTSettingSetFakeSecondaryDNSKey
228ab438 T _CTSettingSetIMSIOverride
228ab71c T _CTSettingSetPCSCFAddress
228ab86c T _CTSettingSetShowMoringaStatusIndicator
228ab790 T _CTSettingSetShowVoLTEStatusIndicator
228ab56c T _CTSettingSetVerifyAPN
228ab4f4 T _CTSettingSetVerifyCarrierBundles
228ab65c T _CTSettingSetWiFiCallingInCallHandover
228ab824 T _CTSettingsCopyiWlanGatewayAddress
343b9a04 S _CTSignalStrengthBarsKey
343b9a00 S _CTSignalStrengthDidChangeNotification
228a7520 T _CTStartManualOTASP
228a7508 T _CTStartOTASP
36af4fb8 S _CTSubscriberSimAuthenticationAutnKey
36af4fc0 S _CTSubscriberSimAuthenticationAutsKey
36af4fcc S _CTSubscriberSimAuthenticationCkKey
36af4fd0 S _CTSubscriberSimAuthenticationIkKey
36af4fc8 S _CTSubscriberSimAuthenticationKcKey
36af4fb4 S _CTSubscriberSimAuthenticationRandKey
36af4fbc S _CTSubscriberSimAuthenticationResKey
36af4fc4 S _CTSubscriberSimAuthenticationSresKey
36af4fb0 S _CTSubscriberSimAuthenticationTypeEAPAKA
36af4fac S _CTSubscriberSimAuthenticationTypeEAPSIM
36af4fa8 S _CTSubscriberSimAuthenticationTypeKey
343ba980 S _CTSubscriberTokenRefreshed
228a8d18 T _CTTelephonyCenterAddObserver
228a897c T _CTTelephonyCenterDefaultExists
228a8c5c T _CTTelephonyCenterGetDefault
228a8a1c T _CTTelephonyCenterGetDispatchQueue
228a8990 T _CTTelephonyCenterGetRunLoop
228a8eec T _CTTelephonyCenterRemoveEveryObserver
228a8ed0 T _CTTelephonyCenterRemoveObserver
228a8f00 T _CTTelephonyCenterSendBarrier
228a8b58 T _CTTelephonyCenterSetDefaultDispatchQueue
228a8c54 T _CTTelephonyCenterSetDefaultDispatchQueuePermanently
228a8aa8 T _CTTelephonyCenterSetDefaultRunloop
228a8c48 T _CTTelephonyCenterSetDefaultRunloopPermanently
228a580c T _CTUSSDSessionCancel
228a57f0 T _CTUSSDSessionSendResponse
228e418c T _ConvertAccountQueryTypesToMask
228b13f4 T _ConvertVocoderRateFromNumber
228b11e4 T _ConvertVocoderRateToNumber
228b1208 T _ConvertVocoderTypeFromString
228b10f4 T _ConvertVocoderTypeToString
228e4138 T _GetCarrierEntitlementNameById
228e413c T _GetCarrierEntitlementResultString
228b0ec8 T _HexToString
         U _MGCopyAnswer
228b0e2c T __CFDataCreateFromHexString
228b0984 T __CFNumberCompareExt
228b1008 T __CFStringContainsAllFs
228b0c38 T __CFStringCopyMCCMNCFromIMSI
228b0d1c T __CFStringCopyMCCMNCFromPLMN
228b0dcc T __CFStringCreateHexFromBinary
228b05f0 T __CFStringGetMobileUser
228b0b74 T __CFStringGetOrCreateCString
228b079c T __CFStringGetWirelessUser
228b0b4c T __CFStringHasPrefixCaseInsensitive
         U __CFXPCCreateCFObjectFromXPCObject
         U __CFXPCCreateXPCObjectFromCFObject
228a6d8c T __CTCallCopyCurrentCalls
228a5928 t __CTCallCopyCurrentCallsWithTypes
228a6df8 t __CTCallCreateFromCallInfo
228eb9c4 t __CTCallCreateFromSerializedData
228eb52c t __CTCallCreateFromXpcDictionary
228a5aac t __CTCallDial
228a6dc4 t __CTCallGetCallStatusFromFlags
229026a0 s __CTCallGetCallStatusFromFlags.kCTCallStatusTypeMap
228a6d94 t __CTCallGetIdentifier
228a73ac t __CTCallHandleCallControlErrorNotification
228a71e0 t __CTCallHandleChangeNotification
228a7374 t __CTCallHandleUSSDSessionStringNotification
343b82e0 s __CTCallHistoryProperties
343b8294 s __CTCallHistoryRecordDescriptor
228a863c t __CTCallHistorySetupDatabase
228a862c T __CTCallHistoryStoreCallTimersGetAll
228a8358 t __CTCallHistoryStoreGetAllMissedCallsWithTypesSince_Internal
228a855c t __CTCallHistoryStoreGetCallTimer
228a8340 T __CTCallHistoryStoreGetCountOfMissedCallSince
228a8538 T __CTCallHistoryStoreGetCountOfMissedCallWithTypesSince
228a81ec t __CTCallHistoryStoreGetMissedCallsSince
228a7c90 t __CTCallHistoryStoreInitialize
228a874c t __CTCallHistoryStoreInitializeConnection
228a7454 t __CTCallInvalidateCallCache
228eba7c t __CTCallPhoneNumberIsMmiOrUssd
228a5850 t __CTCallRegisterClass
229026c4 s __CTCallRegisterClass.kDictionaryNoRetainKeyCallBacks
229026dc s __CTCallRegisterClass.kDictionaryNoRetainValueCallBacks
228ebb48 t __CTCallShouldFilterCallStatusChangeNotification
228ebb14 t __CTCallShouldFilterChangeNotification
228a7bbc t __CTCallUpdateFromCallInfo
228a5a38 t __CTGetCurrentCallCountWithTypes
228aac1c t __CTIndicatorsHandleBatteryCapacityNotification
228aab94 t __CTIndicatorsHandleSignalStrengthNotification
228aac30 t __CTIndicatorsHandleUnconditionalCallForwardingNotification
228aabe4 t __CTIndicatorsHandleVoiceMailAvailableNotification
228aaba8 t __CTIndicatorsPostNotification
228abed4 t __CTRegistrationHandleDataStatusChangedNotification
228abe44 t __CTRegistrationHandleNetworkListAvailableNotification
228a5734 t __CTSMSMessageHandleReceivedNotification
228e7c18 t __CTServerConnectionActivateChannelBypass
228ccffc t __CTServerConnectionAddCall
228c9e98 T __CTServerConnectionAddCellsForTracking
228cca94 t __CTServerConnectionAddHeldToMultiPartyCall
228d4fdc T __CTServerConnectionAddIdentifierException
228e6224 T __CTServerConnectionAddReasonToLastBasebandDump
228d5c20 T __CTServerConnectionAddToRunLoop
228d34ac T __CTServerConnectionAddVictimFreq
228cb60c t __CTServerConnectionAnswerCall
228cb750 t __CTServerConnectionAnswerWaitingCallEndingHeld
228e4c8c T __CTServerConnectionAudioSampleRateSwitchDidComplete
228d06bc T __CTServerConnectionAutomaticallySelectNetwork
228e9108 T __CTServerConnectionBasebandDiagnosticsAbort
228e8ed0 T __CTServerConnectionBasebandDiagnosticsRun
228d3780 T __CTServerConnectionBlockBBFreqReport
228dce54 T __CTServerConnectionCanCreateVVMAssertion
228d2aec T __CTServerConnectionCanSetCapability
228d2b14 T __CTServerConnectionCanSetCapabilityExtended
228cc874 t __CTServerConnectionCancelHardPause
228cc624 t __CTServerConnectionCancelUSSDSession
228c8118 T __CTServerConnectionCarrierSettingsCopyValue
228c9850 T __CTServerConnectionCellMonitorCopyCellInfo
228c9064 T __CTServerConnectionCellMonitorGetCellCount
228ca614 T __CTServerConnectionCellMonitorGetCellInfo
228ca62c T __CTServerConnectionCellMonitorGetUmtsCellCount
228ca638 T __CTServerConnectionCellMonitorGetUmtsCellInfo
228c8ffc T __CTServerConnectionCellMonitorRefresh
228c8f2c T __CTServerConnectionCellMonitorStart
228c8f94 T __CTServerConnectionCellMonitorStop
228e9cd4 t __CTServerConnectionCellularDataPlanAccountIsNew
228e9c24 T __CTServerConnectionCellularDataPlanAccountUpdated
228e9f34 t __CTServerConnectionCellularDataPlanAccountUrlString
228e9f40 t __CTServerConnectionCellularDataPlanCopyDeviceInfo
228e2858 t __CTServerConnectionChangePin2Password
228e2754 t __CTServerConnectionChangePinPassword
228e9234 T __CTServerConnectionCleanBasebandLogs
228d36cc T __CTServerConnectionClearVictimFreq
228e81ec T __CTServerConnectionConfigAccessoryState
228e86f0 T __CTServerConnectionConfigAndCopyTxController
228e8398 T __CTServerConnectionConfigLTECounterParams
228e7208 T __CTServerConnectionConfigMaxTransmitPower
228cffbc T __CTServerConnectionCopyAbbreviatedOperatorName
228e829c T __CTServerConnectionCopyAccessoryState
228e3df4 T __CTServerConnectionCopyAccountInformation
228e5dc8 T __CTServerConnectionCopyActiveAndSupportedBands
228cc34c t __CTServerConnectionCopyAllCallsWithTypes
228e4bb4 T __CTServerConnectionCopyAudioVocoderInfo
228df3f8 T __CTServerConnectionCopyAuthenticationInfo
228d3f20 T __CTServerConnectionCopyBandInfo
228e68e0 T __CTServerConnectionCopyBasebandMasterKeyHash
228e1780 T __CTServerConnectionCopyBasebandSettings
228e67d4 T __CTServerConnectionCopyBasebandThumbprint
228e5940 T __CTServerConnectionCopyBootloaderVersion
228cce60 t __CTServerConnectionCopyCallManagementState
228c8340 T __CTServerConnectionCopyCarrierBookmarks
228c8600 T __CTServerConnectionCopyCarrierBundleInfoArray
228d8378 T __CTServerConnectionCopyCellBroadcastAlertTypes
228ca2f0 T __CTServerConnectionCopyCellsTracking
228e9df8 t __CTServerConnectionCopyCellularDataPlanAccountUrlString
228e9178 T __CTServerConnectionCopyCellularTransmitState
228ec000 T __CTServerConnectionCopyCellularUsagePolicy
228ebcec T __CTServerConnectionCopyCellularUsageWorkspaceInfo
228d0ad0 T __CTServerConnectionCopyCountryCode
228dcf34 T __CTServerConnectionCopyCurrentMTU
228dc974 T __CTServerConnectionCopyDataActivityAssertionProcesses
228dbe6c T __CTServerConnectionCopyDataStatus
228ec98c T __CTServerConnectionCopyDataUsageForSubscriber
228e3670 T __CTServerConnectionCopyEffectiveSimInfo
228de2b0 T __CTServerConnectionCopyFeatures
228e5914 T __CTServerConnectionCopyFirmwareBaselineVersion
228e5d70 T __CTServerConnectionCopyFirmwareManifestData
228e5d18 T __CTServerConnectionCopyFirmwareManifestStatus
228e5998 T __CTServerConnectionCopyFirmwareNonce
228e5cb0 T __CTServerConnectionCopyFirmwarePreflightInfo
228e5b20 T __CTServerConnectionCopyFirmwareSecurityInfo
228df5b8 T __CTServerConnectionCopyFirmwareUpdateInfo
228e5760 T __CTServerConnectionCopyFirmwareVersion
228dedd0 T __CTServerConnectionCopyGid1
228dee78 T __CTServerConnectionCopyGid2
228cc90c t __CTServerConnectionCopyHardPauseDigits
228d3190 T __CTServerConnectionCopyISOForMCC
228e80f0 T __CTServerConnectionCopyLTEStats
228d0be8 T __CTServerConnectionCopyLastKnownCountryCode
228d0bf4 T __CTServerConnectionCopyLastKnownMobileCountryCode
228defc8 T __CTServerConnectionCopyLastKnownMobileSubscriberCountryCode
228d3834 T __CTServerConnectionCopyListVictimFreq
228cffa4 T __CTServerConnectionCopyLocalizedOperatorName
228d3050 T __CTServerConnectionCopyMCCsForISO
228d047c T __CTServerConnectionCopyManualNetworkSelection
228d0adc T __CTServerConnectionCopyMobileCountryCode
228de7a0 T __CTServerConnectionCopyMobileEquipmentInfo
228e596c T __CTServerConnectionCopyMobileIdentity
228d0d0c T __CTServerConnectionCopyMobileNetworkCode
228d32d0 T __CTServerConnectionCopyMobileSubscriberAndIsoCountryCodes
228def20 T __CTServerConnectionCopyMobileSubscriberCountryCode
228deb54 T __CTServerConnectionCopyMobileSubscriberIdentity
228df070 T __CTServerConnectionCopyMobileSubscriberNetworkCode
228d0d00 T __CTServerConnectionCopyNetworkCode
228d0370 T __CTServerConnectionCopyNetworkList
228ca6e4 T __CTServerConnectionCopyNextCall
228ca6fc t __CTServerConnectionCopyNextCallWithTypes
228d09b8 T __CTServerConnectionCopyNumericNetworkCode
228cfe10 T __CTServerConnectionCopyOperatorName
228e7874 T __CTServerConnectionCopyOverrideImeiReq
228e7944 T __CTServerConnectionCopyOverrideImeiStatus
228d948c T __CTServerConnectionCopyPacketContextInterfaceName
228d95bc T __CTServerConnectionCopyPacketContextInterfaceNameByServiceType
228cef20 T __CTServerConnectionCopyPhoneBookEntry
228e33c4 T __CTServerConnectionCopyPhoneNumber
228e1280 T __CTServerConnectionCopyPhoneNumberAreaCode
228e402c T __CTServerConnectionCopyPhoneNumberSignature
228dd84c T __CTServerConnectionCopyPostponementStatus
228d00c8 T __CTServerConnectionCopyProviderName
228d01e8 T __CTServerConnectionCopyProviderNameUsingCarrierBundle
228e6f64 T __CTServerConnectionCopyProxProperty
228d1698 T __CTServerConnectionCopyRATSelectionWithBandInfo
228d3aa4 T __CTServerConnectionCopyRegistrationInfo
228ecb38 T __CTServerConnectionCopyReliableNetworkFallbackSettings
228debfc T __CTServerConnectionCopySIMIdentity
228e00c0 T __CTServerConnectionCopySIMToolkitList
228df8c8 T __CTServerConnectionCopySIMToolkitMenu
228e10b0 T __CTServerConnectionCopyServiceCenterAddressValue
228d158c T __CTServerConnectionCopyServingCellInfo
228d198c T __CTServerConnectionCopyServingNetworkInfo
228d09c4 T __CTServerConnectionCopyServingPLMN
228ec44c T __CTServerConnectionCopyStartDateOfCellularDataUsageRecords
228d20cc T __CTServerConnectionCopySupportedDataRates
228e15f0 T __CTServerConnectionCopySystemCapabilities
228e84f8 T __CTServerConnectionCopyTEMSProperty
228e64b4 T __CTServerConnectionCopyTraceProperty
228ca98c T __CTServerConnectionCopyUSSDString
228ec880 T __CTServerConnectionCopyUsageAlertParameters
228c8328 T __CTServerConnectionCopyValueFromCurrentServiceProviderSettings
228e3838 T __CTServerConnectionCopyVoiceMailInfo
228e6c3c T __CTServerConnectionCopyWakeReason
228d5a7c T __CTServerConnectionCreate
228cbd9c t __CTServerConnectionCreateCall
228d5a88 T __CTServerConnectionCreateOnRunLoop
228d5b38 T __CTServerConnectionCreateOnTargetQueue
228cb550 t __CTServerConnectionCreatePrivateConversation
228d58cc T __CTServerConnectionCreateWithIdentifier
228dc6f0 T __CTServerConnectionDataActivationPopupAssertionCreate
228e944c T __CTServerConnectionDeviceManagementUpdate
228cbba8 t __CTServerConnectionDialService
228e4694 T __CTServerConnectionDisablePCMChannel
228d1038 T __CTServerConnectionDisableRegistration
228cf2d0 T __CTServerConnectionDisableTransmitPowerLimitPerBand
228c8c30 T __CTServerConnectionDoCSIPropertyOperation
228c89e4 T __CTServerConnectionDoModuleOperation
228dc374 T __CTServerConnectionDormancySuspendAssertionCreate
228dbc94 T __CTServerConnectionDropIPPackets
228e60dc T __CTServerConnectionDumpBasebandState
228e6d0c T __CTServerConnectionDumpState
228e4874 T __CTServerConnectionEchoCancelationAndNoiseReduction
228c8808 T __CTServerConnectionEnableAWDInstrumentsMode
228d33f8 T __CTServerConnectionEnableEmergencyCallBackMode
228e73d0 T __CTServerConnectionEnableHAC
228e47bc T __CTServerConnectionEnableMediaToDownlink
228e5e94 T __CTServerConnectionEnableMobileAnalyzerLogging
228e45dc T __CTServerConnectionEnablePCMChannel
228d10e4 T __CTServerConnectionEnableRegistration
228e6da4 T __CTServerConnectionEnableRemoteDiagnostics
228d1190 T __CTServerConnectionEnableStateDurationReporting
228cf224 T __CTServerConnectionEnableTransmitPowerLimitPerBand
228caf68 T __CTServerConnectionEnableVoicePrivacy
228cb9b8 t __CTServerConnectionEndAllCalls
228cb8bc t __CTServerConnectionEndCall
228ce230 t __CTServerConnectionEndCallWithCauseCode
228cb800 t __CTServerConnectionEndThisCall
228e1588 T __CTServerConnectionEraseAllUserProfiles
228e1420 T __CTServerConnectionEraseBasebandSettings
228ec560 T __CTServerConnectionEraseCellularDataUsageRecords
228e13a8 T __CTServerConnectionEraseCommCentersPreferences
228e1510 T __CTServerConnectionEraseNetworkSettings
228dd16c T __CTServerConnectionExecuteCommand
228e1fd0 t __CTServerConnectionFetchCallBarringValue
228e1990 t __CTServerConnectionFetchCallForwardingValue
228e2fd0 t __CTServerConnectionFetchCallWaitingValue
228e32f4 t __CTServerConnectionFetchCallingLineIdRestrictionValue
228e31e0 t __CTServerConnectionFetchCallingLinePresentationValue
228e328c t __CTServerConnectionFetchConnectedLineIdRestrictionValue
228e3134 t __CTServerConnectionFetchConnectedLinePresentationValue
228e2e64 t __CTServerConnectionFetchFixedDialingValue
228d0308 T __CTServerConnectionFetchNetworkList
228ceeb8 T __CTServerConnectionFetchPhonebook
228e335c t __CTServerConnectionFetchServiceCenterAddressValue
228e30cc t __CTServerConnectionFetchSimLockValue
228d24b4 T __CTServerConnectionFetchTimeFromNetwork
228c8b24 T __CTServerConnectionGetAWDInstrumentsMode
228d1a98 T __CTServerConnectionGetActiveWirelessTechnology
228cf598 T __CTServerConnectionGetAllowedRadioMode
228de070 T __CTServerConnectionGetAttachAPNSettings
228e542c T __CTServerConnectionGetAudioLoggingEnabled
228dd2d8 t __CTServerConnectionGetBatteryCapacity
228d1e94 T __CTServerConnectionGetCDMAInternationalRoaming
228d40f8 T __CTServerConnectionGetCDRXWithLTEState
228d2894 T __CTServerConnectionGetCapabilityStatus
228d28bc T __CTServerConnectionGetCapabilityStatusExtended
228e3c2c T __CTServerConnectionGetCarrierEntitlements
228d82a0 T __CTServerConnectionGetCellBroadcastService
228d8458 T __CTServerConnectionGetCellBroadcastSettingForAlertType
228d0f28 T __CTServerConnectionGetCellID
228c9ca0 T __CTServerConnectionGetCellTrackingCount
228c9ba4 T __CTServerConnectionGetCellTrackingStatus
228db16c T __CTServerConnectionGetCellularDataIsDisallowed
228dafb0 T __CTServerConnectionGetCellularDataIsEnabled
228d6254 T __CTServerConnectionGetCommCenterInitializationState
228d2268 T __CTServerConnectionGetCurrentMaxAllowedDataRate
228cac64 T __CTServerConnectionGetDTMFType
228da348 T __CTServerConnectionGetDataServiceAvailability
228e9ab4 T __CTServerConnectionGetDisallowTelephonyFeature
228d13bc T __CTServerConnectionGetE911OverLTEModeStatus
228d14a4 T __CTServerConnectionGetE911OverWifiModeStatus
228db6a8 T __CTServerConnectionGetEULocalBreakOutEnabled
228d12ac T __CTServerConnectionGetEmergencyCallBackMode
228cae64 T __CTServerConnectionGetEmergencyCallStatus
228d1c74 T __CTServerConnectionGetEnableOnlyHomeNetwork
228e89c0 T __CTServerConnectionGetEnhancedVoiceLinkQualityMetric
228e7484 T __CTServerConnectionGetHACState
228da6b0 T __CTServerConnectionGetInterfaceFamilies
228db3d8 T __CTServerConnectionGetInternationalDataAccessStatus
228d0e18 T __CTServerConnectionGetLocationAreaCode
228e9644 T __CTServerConnectionGetManagedCellularProfile
228c9d9c T __CTServerConnectionGetMaxCellTrackingCount
228cad64 T __CTServerConnectionGetMultiPartyCallCountMaximum
228da59c T __CTServerConnectionGetNATTKeepAliveOverCell
228d0768 T __CTServerConnectionGetNetworkSelectionMode
228d0890 T __CTServerConnectionGetNetworkSelectionState
228ddec4 T __CTServerConnectionGetOTAServerOverride
228d9aec T __CTServerConnectionGetPacketContextActive
228d9d38 T __CTServerConnectionGetPacketContextActiveByServiceType
228d9ea8 T __CTServerConnectionGetPacketContextActiveByServiceTypeExtended
228d9390 T __CTServerConnectionGetPacketContextCount
228da834 T __CTServerConnectionGetPacketContextStatistics
228d8ec4 T __CTServerConnectionGetPhoneNumberRegistrationState
228cf140 T __CTServerConnectionGetPhonebookEntry
228cf044 T __CTServerConnectionGetPhonebookEntryCount
228d5be8 T __CTServerConnectionGetPort
228cf824 T __CTServerConnectionGetRATSelection
228cf488 T __CTServerConnectionGetRadioAccessTechnology
228cf808 T __CTServerConnectionGetRatSelectionAllowed
228cf37c T __CTServerConnectionGetRegistrationCauseCode
228cf980 T __CTServerConnectionGetRegistrationStatus
228deca4 T __CTServerConnectionGetRemainingPINAttemptCount
228ded34 T __CTServerConnectionGetRemainingPUKAttemptCount
228e6e58 T __CTServerConnectionGetRemoteDiagnostics
228db8c8 T __CTServerConnectionGetResetCellularAccountSettingsIsAllowed
228e5614 T __CTServerConnectionGetResetState
228de5b0 T __CTServerConnectionGetSIMStatus
228de6a8 T __CTServerConnectionGetSIMTrayStatus
228d81e4 T __CTServerConnectionGetSMSTestingMode
228ec5d8 T __CTServerConnectionGetShowUsageAlert
228cfb8c T __CTServerConnectionGetSignalStrength
228d9290 T __CTServerConnectionGetSmsReadyState
228e4a20 T __CTServerConnectionGetTTYMode
228dd400 T __CTServerConnectionGetTemperature
228d8714 T __CTServerConnectionGetTestModeFunction
228bff54 T __CTServerConnectionGetThumperName
228e72b8 T __CTServerConnectionGetTxDutyCycle
228d52e0 T __CTServerConnectionGetTypeID
228e9800 T __CTServerConnectionGetUIConfiguredApns
228dddb0 T __CTServerConnectionGetUpdatedCarrierBundle
228d3940 T __CTServerConnectionGetUplinkFreq
228e8814 T __CTServerConnectionGetVoiceLinkQualityMetric
228d90b4 t __CTServerConnectionGetVoiceMailAvailable
228e4ec0 T __CTServerConnectionGetVoiceMute
228cb018 T __CTServerConnectionGetVoicePrivacy
228d6390 T __CTServerConnectionGetXpcConnection
228d5c1c T __CTServerConnectionHandleReply
228dadb8 T __CTServerConnectionHideDataIndicator
228daeb4 T __CTServerConnectionHideRatIndicator
228dcc00 T __CTServerConnectionHighPriorityCellularDataAssertionCreate
228dcac8 T __CTServerConnectionHighSpeedCellularDataAssertionCreate
228ccb70 t __CTServerConnectionHoldActiveCall
228dd0fc T __CTServerConnectionICloudAccountReset
228d8ad0 T __CTServerConnectionInjectCellBroadcastMessage
228ca878 T __CTServerConnectionIsAnyCallActiveOrHeld
228de198 T __CTServerConnectionIsAttachAPNSettingAllowed
228d1d84 T __CTServerConnectionIsCDMAInternationalRoamingSettingAllowed
228cfd14 T __CTServerConnectionIsDataAttached
228d63d8 T __CTServerConnectionIsDefaultConnection
228db4e8 T __CTServerConnectionIsEULocalBreakOutAvailable
228cd78c T __CTServerConnectionIsEmergencyNumber
228cd970 T __CTServerConnectionIsEmergencyNumberWithWhitelistIncluded
228cfa90 T __CTServerConnectionIsInHomeCountry
228c8524 T __CTServerConnectionIsPhoneNumberCredentialValid
228d8b80 T __CTServerConnectionIsPhoneNumberRegistrationSupported
228da444 T __CTServerConnectionIsServiceOverPublicInternet
228db7b8 T __CTServerConnectionIsTetheringEditingSupported
228e1ed4 t __CTServerConnectionIsUnconditionalCallForwardingActive
228c8448 T __CTServerConnectionIsUserIdentityModuleRequired
228cd984 T __CTServerConnectionIsValidEmergencyNumber
228df1a8 T __CTServerConnectionIssueActivationTicket
228e950c T __CTServerConnectionLoadManagedCellularProfile
228ddb78 T __CTServerConnectionLockPostponementTicket
228ce340 t __CTServerConnectionMediaStatusIsActive
228e5fa8 T __CTServerConnectionMobileAnalyzerLoggingEnabled
228ddfc4 T __CTServerConnectionModifyAttachAPNSettings
228ca650 T __CTServerConnectionNetworkMonitorCopyPDPInfo
228ca440 T __CTServerConnectionNetworkMonitorCreateLogChannel
228c925c T __CTServerConnectionNetworkMonitorGetCellInfo
228c9160 T __CTServerConnectionNetworkMonitorGetUmtsCellCount
228c9598 T __CTServerConnectionNetworkMonitorGetUmtsCellInfo
228d2f40 T __CTServerConnectionNetworkNeedReselect
228df118 T __CTServerConnectionNetworkSelectionMenuAvailable
228dc464 T __CTServerConnectionOTAActivationAssertionCreate
228e75e8 T __CTServerConnectionOverrideImeiReq
228e773c T __CTServerConnectionOverrideImeiStatus
228de8f8 T __CTServerConnectionPINUnlock
228dea08 T __CTServerConnectionPUKUnlock
228dc58c T __CTServerConnectionPacketContextAssertionCreate
228c88bc T __CTServerConnectionPerformInternalVinylOperation
228c8744 T __CTServerConnectionPerformMigration
228d2d50 T __CTServerConnectionPhoneServicesAccountStatusChanged
228d4630 T __CTServerConnectionPhoneServicesAddDevice
228d49e4 T __CTServerConnectionPhoneServicesDisableDevice
228d48a8 T __CTServerConnectionPhoneServicesEnableDevice
228d44b8 T __CTServerConnectionPhoneServicesGetDeviceInfo
228d4340 T __CTServerConnectionPhoneServicesGetDeviceList
228d476c T __CTServerConnectionPhoneServicesRemoveDevice
228e2d54 t __CTServerConnectionPreferencesCopyValue
228e2c58 t __CTServerConnectionPreferencesSetValue
228cdc24 t __CTServerConnectionPullCallFromOtherDevice
228ce144 t __CTServerConnectionPullCallIsPossible
228e3d34 T __CTServerConnectionQueryAccountInformation
228e8c30 T __CTServerConnectionQueryEnhancedLinkQualityMetric
228e7580 T __CTServerConnectionQueryTxCounters
228d5f24 T __CTServerConnectionRegisterBlockForNotification
228cb1e0 T __CTServerConnectionRegisterCallService
228e8aa4 T __CTServerConnectionRegisterEnhancedLinkQualityMetric
228d5ea0 T __CTServerConnectionRegisterForEvent
228d5e64 T __CTServerConnectionRegisterForNotification
228cd320 T __CTServerConnectionRegisterSilentHoursCallback
228d2e08 T __CTServerConnectionRegistrationNotificationAssertionCreate
228e92cc T __CTServerConnectionRegistrationSetupBasebandResponse
228dbaf0 T __CTServerConnectionReleaseQOS
228ca174 T __CTServerConnectionRemoveCellsForTracking
228dda90 T __CTServerConnectionRemovePostponementTicket
228d35f4 T __CTServerConnectionRemoveVictimFreq
228db9d8 T __CTServerConnectionRequestQOS
228d1244 T __CTServerConnectionRequestStateDurationReport
228ddd48 T __CTServerConnectionResetCarrierBundle
228e6b44 T __CTServerConnectionResetModem
228e6b50 T __CTServerConnectionResetModemWithCrashLogs
228daaa0 T __CTServerConnectionResetPacketContextSettings
228da9f0 T __CTServerConnectionResetPacketContextStatistics
228e98fc T __CTServerConnectionResetUIConfiguredApns
228ccc28 t __CTServerConnectionResumeHeldCall
228df2cc T __CTServerConnectionSIMAuthenticate
228c7ec4 t __CTServerConnectionSIMStatusToSIMStatusString
228e0de4 T __CTServerConnectionSIMToolkitDisplayReady
228c7ee8 t __CTServerConnectionSIMTrayStatusToSIMTrayStatusString
228e221c t __CTServerConnectionSaveCallBarringValue
228e1b7c t __CTServerConnectionSaveCallForwardingValue
228e25fc t __CTServerConnectionSaveCallWaitingValue
228e2a68 t __CTServerConnectionSaveCallingLineIdRestrictionValue
228e242c t __CTServerConnectionSaveFixedDialingValue
228ced68 T __CTServerConnectionSavePhonebookEntry
228e2b84 t __CTServerConnectionSaveServiceCenterAddressValue
228e295c t __CTServerConnectionSaveSimLockValue
228d0588 T __CTServerConnectionSelectNetwork
228cec6c T __CTServerConnectionSelectPhonebook
228e0500 T __CTServerConnectionSelectSIMToolkitListItem
228dff78 T __CTServerConnectionSelectSIMToolkitMenuItem
228e7f14 T __CTServerConnectionSendAwdProfile
228e7fc4 T __CTServerConnectionSendAwdQueriableMetric
228d5d94 T __CTServerConnectionSendBarrier
228d8a20 T __CTServerConnectionSendCellBroadcast
228cc7dc t __CTServerConnectionSendDTMFDigitsNow
228e8d78 T __CTServerConnectionSendEnhancedLinkQualityTrafficInfo
228d8c68 T __CTServerConnectionSendPhoneNumberRegistrationRequest
228e0b0c T __CTServerConnectionSendSIMToolkitBooleanResponse
228e0eb4 T __CTServerConnectionSendSIMToolkitResponse
228e089c T __CTServerConnectionSendSIMToolkitStringResponse
228cb478 t __CTServerConnectionSendToVoicemail
228caaf4 T __CTServerConnectionSendUSSDResponse
228e07cc T __CTServerConnectionSendUserActivity
228e4d44 T __CTServerConnectionSetActiveAudioSystemConfiguration
228e5de0 T __CTServerConnectionSetActiveBands
228df494 T __CTServerConnectionSetActivityURL
228e5374 T __CTServerConnectionSetAudioLoggingEnabled
228e4208 T __CTServerConnectionSetAudioPath
228d4048 T __CTServerConnectionSetBandInfo
228e18b8 T __CTServerConnectionSetBasebandSettings
228e69ec T __CTServerConnectionSetBluetoothPower
228d1fa4 T __CTServerConnectionSetCDMAInternationalRoaming
228e4afc T __CTServerConnectionSetCTMMode
228e7af8 T __CTServerConnectionSetCampOnlyMode
228d2698 T __CTServerConnectionSetCapability
228d26b0 T __CTServerConnectionSetCapabilityExtended
228d81ec T __CTServerConnectionSetCellBroadcastService
228d85b0 T __CTServerConnectionSetCellBroadcastSettingForAlertType
228db278 T __CTServerConnectionSetCellularDataIsDisallowed
228db0bc T __CTServerConnectionSetCellularDataIsEnabled
228ebe10 T __CTServerConnectionSetCellularUsagePolicy
228ec314 T __CTServerConnectionSetCellularUsagePolicyForAll
228e43f4 T __CTServerConnectionSetChannelMute
228d41e0 T __CTServerConnectionSetCivicInfoBasedOnCurrentLocation
228cabb4 T __CTServerConnectionSetDTMFType
228ea058 t __CTServerConnectionSetDataPlanWebsheetVisibility
228d63cc T __CTServerConnectionSetDefaultConnection
228e9974 T __CTServerConnectionSetDisallowTelephonyFeature
228d63ac T __CTServerConnectionSetDiscardIntermediateCallStatus
228d63a4 T __CTServerConnectionSetDiscardIntermediateCallStatusSupport
228db5f8 T __CTServerConnectionSetEULocalBreakOutEnabled
228d1bc0 T __CTServerConnectionSetEnableOnlyHomeNetwork
228e44e8 T __CTServerConnectionSetI2SFormat
228db328 T __CTServerConnectionSetInternationalDataAccessStatus
228e636c T __CTServerConnectionSetLayer1TraceArgs
228e4f9c T __CTServerConnectionSetMasterMute
228d2384 T __CTServerConnectionSetMaxAllowedDataRate
228dd6a4 T __CTServerConnectionSetMaxTemperature
228e5508 T __CTServerConnectionSetMaxTransmitPower
228e4704 T __CTServerConnectionSetMixState
228dde18 T __CTServerConnectionSetOTAServerOverride
228d99c0 T __CTServerConnectionSetPacketContextActive
228d9c04 T __CTServerConnectionSetPacketContextActiveByServiceType
228dbba4 T __CTServerConnectionSetPacketNotificationFilter
228da05c T __CTServerConnectionSetPacketProtocolActiveByInterface
228da210 T __CTServerConnectionSetPacketProtocolActiveByServiceType
228dd778 T __CTServerConnectionSetPeriodicTemperatureUpdate
228e7d90 T __CTServerConnectionSetPingParameters
228dd970 T __CTServerConnectionSetPostponementTicket
228e70a8 T __CTServerConnectionSetProxProperty
228cf6a8 T __CTServerConnectionSetRATSelection
228d1840 T __CTServerConnectionSetRATSelectionWithBandInfo
228ecc48 T __CTServerConnectionSetReliableNetworkFallbackToCellular
228e3aa4 T __CTServerConnectionSetSPC
228ec6ec T __CTServerConnectionSetShowUsageAlert
228e42fc T __CTServerConnectionSetSourceGain
228e85d8 T __CTServerConnectionSetTEMSProperty
228e4968 T __CTServerConnectionSetTTYMode
228d5cb8 T __CTServerConnectionSetTargetQueue
228dd598 T __CTServerConnectionSetTemperatureFilter
228d88b8 T __CTServerConnectionSetTestModeFunction
228e8448 T __CTServerConnectionSetTestPayload
228d25e8 T __CTServerConnectionSetTimeCacheValidityPeriod
228e6638 T __CTServerConnectionSetTraceProperty
228e9740 T __CTServerConnectionSetUIConfiguredApns
228ec7c0 T __CTServerConnectionSetUsageAlertParameters
228e51fc T __CTServerConnectionSetVibratorState
228e4e08 T __CTServerConnectionSetVoiceMute
228d63b4 T __CTServerConnectionShouldDiscardIntermediateCallStatus
228e5054 T __CTServerConnectionStartAudioTone
228c99a4 T __CTServerConnectionStartCellTracking
228cc690 t __CTServerConnectionStartDTMFTone
228ccf4c t __CTServerConnectionStartOTASP
228e518c T __CTServerConnectionStopAudioTone
228c9aa4 T __CTServerConnectionStopCellTracking
228cc744 t __CTServerConnectionStopDTMFTone
228ccd44 t __CTServerConnectionSwapCalls
228cda80 t __CTServerConnectionSwitchCallSource
228cdb74 t __CTServerConnectionSwitchCallSourceAll
228dc1b4 T __CTServerConnectionTetheringAssertionCreate
228eb414 T __CTServerConnectionUIMAuthenticate
228e7e7c T __CTServerConnectionUnblockReset
228e95cc T __CTServerConnectionUnloadManagedCellularProfile
228ddc60 T __CTServerConnectionUnlockPostponementTicket
228cb3bc T __CTServerConnectionUnregisterCallService
228d5fa0 T __CTServerConnectionUnregisterForEvent
228d5f64 T __CTServerConnectionUnregisterForNotification
228cd670 T __CTServerConnectionUnregisterSilentHoursCallback
228cba24 t __CTServerConnectionUpdateCallStatus
228e3f34 T __CTServerConnectionUpdateCarrierPushToken
228d2d44 T __CTServerConnectionUpdateEmergencyAddressStatus
228dbd78 T __CTServerConnectionUpdateProtocolQualityOfService
228dbd6c T __CTServerConnectionUpdateQualityOfService
228dcd38 T __CTServerConnectionVVMAssertionCreate
228dd044 T __CTServerConnectionVVMEventPush
228e3b7c T __CTServerConnectionVerifyCarrierEntitlements
228dabfc T __CTServerEnableFastDormancy
228dab50 T __CTServerForceFastDormancy
228dacac T __CTServerIsFastDormancyEnabled
228cb11c T __CTServerSetSupportsVoiceCall
228a7adc t __CallCopyDescription
228a7978 t __CallDestroy
228a7a10 t __CallEqual
228a7ab8 t __CallHash
360a26ac d __CallHistoryInitialize
228a876c t __CallHistoryMigrator
343b83e4 s __CallHistoryMigrator.kRemoveTriggers
360a2bb4 b __CallHistoryStore
360a26b4 d __CallHistoryStoreLock
228b0b44 T __CompareBundleVersionStrings
228b0d74 T __ConvertBinaryToHex
228b0a94 T __CopyBundleID
228b0ae8 T __CopyBundleVersion
228b09a4 T __CopyBundleVersionWithCFURL
228b0a34 T __CopyCFBundle
228a60dc t __CopyCallUUIDSync
228a8104 t __CreateCallTypesQuery
228a7e3c t __CreateDictionariesOfCallInfo_NoLock
228b0820 T __CreateDirectoriesToPath
36af4f68 s __CurrentCalls
36af4f6c s __CurrentCallsUpToDate
         U __DefaultRuneLocale
228c7e64 t __ExtractCallTypes
228c4e10 t __GLOBAL__sub_I_CTFrameworkStrings.cpp
228a9e14 t __GLOBAL__sub_I_CTServerConnectionNotificationMapping.cpp
228eb2e0 t __GLOBAL__sub_I_CTSubscriber.mm
228b3db8 t __GLOBAL__sub_I_MmsContentType.cpp
228b7d2c t __GLOBAL__sub_I_MmsMimePart.cpp
228c1968 t __GLOBAL__sub_I_MmsParameterContainer.cpp
228c7e28 t __GetCallServiceProviderFlagForString
228c7e04 t __GetCallServiceProviderStringForFlag
228c7dd8 t __GetCallSubTypeString
228c7d50 t __GetCallTypeFlagForString
228c7d00 t __GetCallTypeStringForFlag
228b04c8 T __GetMobileUserDirectory
228b0648 T __GetMobileUserGID
228b061c T __GetMobileUserUID
228b0674 T __GetWirelessUserDirectory
228b07f4 T __GetWirelessUserGID
228b07c8 T __GetWirelessUserUID
36af4efc s __GlobalCallsLock
228b0f58 T __IsCarrierBuild
228b0fa0 T __IsInternalBuild
228b0fec T __IsInternalOrCarrierBuild
228b0fe8 T __IsVendorBuild
         U __NSConcreteGlobalBlock
         U __NSConcreteStackBlock
228b08d8 T __SynchronizeCommCenterPreferences
         U __Unwind_SjLj_Register
         U __Unwind_SjLj_Resume
         U __Unwind_SjLj_Unregister
36af4f64 s __UuidToCallMap
228d65d4 t __Z10loadBundlePK10__CFString
228d4d3c t __Z11getDataRatePK10__CFString
228c22bc t __Z12playToneToCF14SIMToolkitTone
228b16f8 T __Z13displayNoticePK10__CFStringS1_S1_
228b1630 T __Z13displayNoticeRKNSt3__112basic_stringIcNS_11char_traitsIcEENS_9allocatorIcEEEES7_
228d6590 t __Z14SendXpcMessageP20__CTServerConnectionRKN3xpc4dictE
228d636c t __Z14SendXpcMessageP20__CTServerConnectionRKN3xpc4dictERS2_
228bf66c t __Z14_CTErrorStringl
228d4c18 t __Z14toRATSelectionPK10__CFString
228d65b4 t __Z16SendXpcMessageIfbP20__CTServerConnectionRKN3xpc4dictE
228d6408 t __Z16SendXpcMessageIfbP20__CTServerConnectionRKN3xpc4dictERS2_
228c22e4 t __Z16callPriorityToCF22SIMToolkitCallPriority
228b1598 T __Z16canDisplayNoticev
228d4d18 t __Z17getDataRateString8DataRate
228b172c T __Z17isEmergencyNumberRKNSt3__112basic_stringIcNS_11char_traitsIcEENS_9allocatorIcEEEE
228ac364 t __Z18_CreateBandsToMaskPK9__CFArray
228d4eac t __Z18getRatAndPrefferedhhRPK10__CFStringS2_
228d63e4 t __Z19SendXpcMessageAsyncP20__CTServerConnectionRKN3xpc4dictEP16dispatch_queue_sU13block_pointerFvPvE
228c2284 t __Z19simToolkitInputToCF15SIMToolkitInput
228ac844 t __Z21_CTHandleNotificationP20__CTServerConnection7CTEventPim11CFUUIDBytesPhS4_S4_
228c224c t __Z21callControlResultToCF17CallControlResult
228a5358 T __Z22CTGetRootVersionStringv
228d4b70 t __Z24lteWithCDRXStateAsString16LTEWithCDRXState
228d55e4 t __Z24sCTServerConnectionStartP20__CTServerConnection
228d5394 t __Z25sCTServerConnectionCreatePK13__CFAllocatorRKNSt3__112basic_stringIcNS2_11char_traitsIcEENS2_9allocatorIcEEEE
228a93a8 t __Z29sCTEventForNotificationStringPK10__CFString
228a9424 t __Z29sNotificationStringForCTEvent7CTEvent
228ac2c0 t __Z32_CFArrayCreateWithRadioBandFlagsPK13__CFAllocatorj
228d6718 t __Z32appendCallNotificationDictionaryP20__CTServerConnection7CTEventRKN3xpc4dictEN3ctu2cf11CFSharedRefI14__CFDictionaryEE
228ecf48 t __Z33getCellularDataUsagePolicyForEnum25CTCellularDataUsagePolicy
228ecef4 t __Z33getEnumForCellularDataUsagePolicyPK10__CFString
228c4d9c t __Z35sGetCanonicalizedNotificationStringPK10__CFString
228ac3f8 t __Z41_FillDictionaryKeysAndValuesForDataStatusPK13__CFAllocatormPiPPK10__CFStringPPKv
228d4fb4 t __Z44registrationStatusToRegistrationStatusString18RegistrationStatus
228d4ba0 t __Z44wirelessTechnologyToWirelessTechnologyString18WirelessTechnology
228d4be8 t __Z48networkSelectionModeToNetworkSelectionModeString20NetworkSelectionMode
228bf594 t __Z49_CTServerConnectionCallClassEnumToCallClassStringi
228d4b48 t __Z50RadioAccessTechnologyToRadioAccessTechnologyString21RadioAccessTechnology
228d4e40 t __Z50networkSelectionStateToNetworkSelectionStateString21NetworkSelectionState
228dbd44 t __Z53_CTServerConnectionQosFlowStatusToQosFlowStatusStringh
228bf540 t __Z55_CTServerConnectionMMIProcedureEnumToMMIProcedureString12MmiProcedure
228bf644 t __Z69_CTServerConnectionCallBarringFacilityEnumToCallBarringFacilityString19CallBarringFacility
228bf61c t __Z71_CTServerConnectionCallForwardingReasonEnumToCallForwardingReasonString20CallForwardingReason
228b141c T __Z8basenameRKNSt3__112basic_stringIcNS_11char_traitsIcEENS_9allocatorIcEEEE
360a2ed8 b __ZGVZ17isEmergencyNumberRKNSt3__112basic_stringIcNS_11char_traitsIcEENS_9allocatorIcEEEEE10numberList
360a2f08 b __ZGVZN13MmsPduDecoder21_decodeMessageHeadersEP10MmsMessageE15requiredHeaders
228ea730 t __ZL10WeakRetainPKv
228c3474 t __ZL10WeakRetainPKv
228c6bd8 t __ZL10WeakRetainPKv
228c3484 t __ZL11WeakReleasePKv
228c6be8 t __ZL11WeakReleasePKv
228ea740 t __ZL11WeakReleasePKv
228bf09c t __ZL11_mimeDecodeP8NSString
36af4f8c s __ZL11_mmsVersion
228a9324 t __ZL12_DaemonReadyP22__CFNotificationCenterPvPK10__CFStringPKvPK14__CFDictionary
360a2f14 b __ZL12_encodingMap
360a2ee4 b __ZL12_encodingMap
228b8b80 t __ZL12comparePartsP11MmsMimePartS0_
343b8740 s __ZL13_contentTypes
228d7ba8 t __ZL13sAssignStringPvmRKN3xpc6objectE
360a2eb4 b __ZL14_MobileUserGID
360a2eb0 b __ZL14_MobileUserUID
22902bb0 s __ZL14kDateFormatStr
36af4fa0 s __ZL14sFrameworkInit
360a3560 b __ZL14sloadedBundles
228bf16c t __ZL15_loadMimeBundlev
22902c6e s __ZL15http_separators
228c00c8 t __ZL15initCharsetMapsv
228b7410 t __ZL15initEncodingMapv
228f1a12 s __ZL15kASCIIHexDigits
343b9300 s __ZL15kCTErrorStrings
360a3564 b __ZL15sNeverReconnect
228b0f28 t __ZL16HexDigitToNibbleh
360a2ec4 b __ZL16_WirelessUserGID
360a2ec0 b __ZL16_WirelessUserUID
22902f45 s __ZL16kCharsetNameBig5
22902efa s __ZL16kCharsetNameUTF8
228bf0e8 t __ZL16stripAddressTypePKc
360a2eac b __ZL17_MobileUserString
360a2f0a b __ZL17_mimeBundleLoaded
360a2f10 b __ZL17_nameToCharsetMap
22902e0a s __ZL17kCharsetNameASCII
22902e03 s __ZL17kCharsetNameUTF16
360a2b90 d __ZL18__NotificationInit
36af4f78 s __ZL18_nameToEncodingMap
228da198 t __ZL18getInterfaceNumberPK10__CFString
22902f3e s __ZL18kCharsetNameEUC_CN
22902e8c s __ZL18kCharsetNameEUC_JP
22902eae s __ZL18kCharsetNameEUC_KR
22902f24 s __ZL18kCharsetNameGBK_95
22902f7e s __ZL18kCharsetNameKOI8_R
228d5718 t __ZL19DispatchReEstablishP22__CFNotificationCenterPvPK10__CFStringPKvPK14__CFDictionary
360a2ebc b __ZL19_WirelessUserString
22902f30 s __ZL19kCharsetNameUnicode
360a2ea8 b __ZL20_MobileUserDirectory
360a2f0c b __ZL20_mibEnumToCharsetMap
36af4f98 s __ZL20_sharedMessageCenter
228d96fc t __ZL20getConnectionTypeIntPK10__CFString
22902f4a s __ZL20kCharsetNameMacRoman
22902e82 s __ZL20kCharsetNameShiftJIS
2290305c s __ZL20kMmsParameterNameMAC
22903058 s __ZL20kMmsParameterNameSEC
360a2f09 b __ZL21_mimeBundleLoadFailed
343b8684 s __ZL21kCTOtaspStatusToNames
22902f70 s __ZL21kCharsetNameDOSArabic
22902f77 s __ZL21kCharsetNameDOSGreek2
22902f37 s __ZL21kCharsetNameDOSLatin1
22902f5b s __ZL21kCharsetNameDOSLatin2
22902e13 s __ZL21kCharsetNameISOLatin1
22902e1e s __ZL21kCharsetNameISOLatin2
22902e29 s __ZL21kCharsetNameISOLatin3
22902e34 s __ZL21kCharsetNameISOLatin4
22902e6b s __ZL21kCharsetNameISOLatin5
22902e76 s __ZL21kCharsetNameISOLatin6
22902f00 s __ZL21kCharsetNameISOLatin7
22902f0c s __ZL21kCharsetNameISOLatin8
22902f18 s __ZL21kCharsetNameISOLatin9
2290308a s __ZL21kMmsParameterNameSize
228a9198 t __ZL22CTTelephonyCenterSetupP20__CTServerConnection
228a9350 t __ZL22_SignificantTimeChangeP22__CFNotificationCenterPvPK10__CFStringPKvPK14__CFDictionary
360a2eb8 b __ZL22_WirelessUserDirectory
22902f54 s __ZL22kCharsetNameDOSLatinUS
22902f90 s __ZL22kCharsetNameDOSRussian
22902f62 s __ZL22kCharsetNameDOSTurkish
22902f85 s __ZL22kCharsetNameHZ_GB_2312
228d558c t __ZL22sConnectionStateDeletePv
228c2848 t __ZL23_AppendKeyValueToStringPKvS0_Pv
36af4f28 s __ZL23_CTTelephonyCreateMutex
22902ede s __ZL23kCharsetNameISO_2022_CN
22902eb5 s __ZL23kCharsetNameISO_2022_JP
22902ea2 s __ZL23kCharsetNameISO_2022_KR
22902e93 s __ZL23kCharsetNameKSC_5601_87
228d5670 t __ZL24_CTServerConnectXpc_syncP13CTServerStateP16dispatch_queue_sU13block_pointerFvvE
360a2760 d __ZL24_MobileUserDirectoryOnce
228bc444 t __ZL24acknowledgeMessageWithIdjh
22902f97 s __ZL24kCharsetNameDOSBalticRim
22902f69 s __ZL24kCharsetNameDOSIcelandic
22902ecf s __ZL24kCharsetNameJIS_X0208_90
22902fd0 s __ZL24kCharsetNameWindowsGreek
36af4fa4 s __ZL25_CTServerConnectionTypeID
36af4f74 s __ZL25_CTTelephonyCenterDefault
228c6bf8 t __ZL25_ServerConnectionCallbackP20__CTServerConnectionPK10__CFStringPK14__CFDictionaryPv
228ea750 t __ZL25_ServerConnectionCallbackP20__CTServerConnectionPK10__CFStringPK14__CFDictionaryPv
228c3494 t __ZL25_ServerConnectionCallbackP20__CTServerConnectionPK10__CFStringPK14__CFDictionaryPv
228a8f1c t __ZL25_ServerConnectionCallbackPK10__CFStringPK14__CFDictionary
360a2f30 b __ZL25__ValidDPNotificationKeys
360a2f2c b __ZL25__ValidVMNotificationKeys
22902f28 s __ZL25kCharsetNameGB_18030_2000
22902e55 s __ZL25kCharsetNameISOLatinGreek
22902ec1 s __ZL25kCharsetNameISO_2022_JP_1
22902ff7 s __ZL25kCharsetNameWindowsArabic
22902fea s __ZL25kCharsetNameWindowsHebrew
22902fc3 s __ZL25kCharsetNameWindowsLatin1
22902fa9 s __ZL25kCharsetNameWindowsLatin2
22902fdd s __ZL25kCharsetNameWindowsLatin5
22903080 s __ZL25kMmsParameterNameReadDate
228b0388 t __ZL26_CTSendMessageNotificationP20__CTServerConnection7CTEventPK10__CFStringj14_CTMessageTypeii
228d5784 t __ZL26_CTServerConnectionCheckInP20__CTServerConnection
228d6d44 t __ZL26_CTServerConnectionCleanupP20__CTServerConnection
228d6c4c t __ZL26_CTServerConnectionDestroyPKv
228b04f4 t __ZL26_CopyMobileUserInformationv
360a2768 d __ZL26_WirelessUserDirectoryOnce
360a2f24 b __ZL26__ValidDPNotificationNames
360a2f34 b __ZL26__ValidPNRNotificationKeys
360a2f20 b __ZL26__ValidVMNotificationNames
360a2edc b __ZL26_multipartMixedContentType
22902e4a s __ZL26kCharsetNameISOLatinArabic
22902e60 s __ZL26kCharsetNameISOLatinHebrew
360a2f28 b __ZL27__ValidPNRNotificationNames
228be5c4 t __ZL27_mimeEncodeWithEncodingHintP8NSStringm
22902f9e s __ZL27kCharsetNameBig5_HKSCS_1999
22902eea s __ZL27kCharsetNameISO_2022_CN_EXT
22902fb6 s __ZL27kCharsetNameWindowsCyrillic
228d5320 t __ZL27sInitializeCTFrameworkStuffPv
228b06a0 t __ZL28_CopyWirelessUserInformationv
360a2ee0 b __ZL28_multipartRelatedContentType
22902e3f s __ZL28kCharsetNameISOLatinCyrillic
22903004 s __ZL28kCharsetNameWindowsBalticRim
22903011 s __ZL29kCharsetNameWindowsVietnamese
22903060 s __ZL29kMmsParameterNameCreationDate
228d7304 t __ZL30_CTServerConnectionReEstablishP20__CTServerConnection
36af4f9c s __ZL30_messageCenterServerConnection
228bef64 t __ZL30addRecipientsFromMmsWithHeaderPKcP10MmsMessageP9CTMessage
2290308f s __ZL30kMmsParameterNameNameTextValue
229030bd s __ZL30kMmsParameterNamePathTextValue
228c2c24 t __ZL31_NotificationNameDictionaryInitv
360a2b8c d __ZL31gContentDispositionEncodingByte
2290309d s __ZL31kMmsParameterNameStartTextValue
228a8cac t __ZL32CTTelephonyCenterCreateOnRunloopP11__CFRunLoopPK10__CFString
22902a70 s __ZL32kMmsContentTypeWapMultipartMixed
229030b6 s __ZL32kMmsParameterNameDomainTextValue
229030ae s __ZL33kMmsParameterNameCommentTextValue
2290306e s __ZL33kMmsParameterNameModificationDate
228d6d14 t __ZL34_CTServerConnectionCopyDescriptionPKv
22902a94 s __ZL34kMmsContentTypeWapMultipartRelated
22903094 s __ZL34kMmsParameterNameFilenameTextValue
229030a3 s __ZL35kMmsParameterNameStartInfoTextValue
228a8ab4 t __ZL35sCTTelephonyCenterSetDefaultRunloopbP11__CFRunLoopPK10__CFString
228ca078 t __ZL40_CTServerConnectionIsCellTrackingEnabledP20__CTServerConnectionPh
228a8b60 t __ZL41sCTTelephonyCenterSetDefaultDispatchQueuebP16dispatch_queue_s
228cfe28 t __ZL42_CTServerConnectionCopyCurrentOperatorNameP20__CTServerConnectionPPK10__CFStringPK11__CFBoolean
228cd7a0 t __ZL42_CTServerConnectionIsEmergencyNumberHelperP20__CTServerConnectionPK10__CFStringhPh
228c8130 t __ZL46_CTServerConnectionCarrierSettingsCopyValueForP20__CTServerConnectionPK10__CFStringPPKvb
228a8e88 t __ZL48_CTTelephonyCenterRegisterTimeChangeNotificationv
36af4f54 s __ZL52_CTTelephonyCenterRegisterTimeChangeNotificationOnce
228e0710 t __ZL65_CTServerConnectionSIMToolkitResponseStringToNotificationResponsePK10__CFString
360a2904 d __ZL9_charsets
228b70b8 t __ZN10MmsMessage10setSubjectEPKc
360a2bb0 s __ZN10MmsMessage12_encodingMapE
228b6540 t __ZN10MmsMessage15initEncodingMapEv
228b63ac t __ZN10MmsMessage18prepareForEncodingEv
228b7078 t __ZN10MmsMessage5setToEPKcb
228b6fc0 t __ZN10MmsMessage7addPartEP11MmsMimePart
228b7098 t __ZN10MmsMessage7setFromEPKc
228b6f9c t __ZN10MmsMessageC1Ev
228b704c t __ZN10MmsMessageD0Ev
228b7048 t __ZN10MmsMessageD1Ev
228b6ffc t __ZN10MmsMessageD2Ev
228b73b8 t __ZN11MmsMimePart7setBodyEPKvm
228b7370 t __ZN11MmsMimePartC1EPKvmPKc
228b734c t __ZN11MmsMimePartC1Ev
228b7304 t __ZN11MmsMimePartC2EPKvmPKc
228b73a8 t __ZN11MmsMimePartD0Ev
228b73a4 t __ZN11MmsMimePartD1Ev
228b7374 t __ZN11MmsMimePartD2Ev
228d2f3c t __ZN12_GLOBAL__N_114_DummyCallbackEP20__CTServerConnectionPK10__CFStringPK14__CFDictionaryPv
228cc308 t __ZN12_GLOBAL__N_115createUuidBytesERKN3xpc6objectE
228df710 t __ZN12_GLOBAL__N_121GetSubscriberPropertyEP20__CTServerConnectionPKcS3_RN3xpc6objectE
228e578c t __ZN12_GLOBAL__N_122GetRadioModulePropertyEP20__CTServerConnectionPKcPPK10__CFStringNSt3__112basic_stringIcNS8_11char_traitsIcEENS8_9allocatorIcEEEE
228e5b78 t __ZN12_GLOBAL__N_122GetRadioModulePropertyEP20__CTServerConnectionPKcPPK14__CFDictionaryS6_
228d60fc t __ZN12_GLOBAL__N_122RegisterClientForEventEP20__CTServerConnectionl
228dc370 t __ZN12_GLOBAL__N_123_DummyAssertionCallBackEP20__CTServerConnectionPK10__CFStringPK14__CFDictionaryPv
228baa64 t __ZN12_GLOBAL__N_127_MCServerConnectionCallbackEP20__CTServerConnectionPK10__CFStringPK14__CFDictionaryPv
228e2194 t __ZN12_GLOBAL__N_169_CTServerConnectionCallBarringFaciltiyStringToCallBarringFacilityEnumEPK10__CFString
228cb534 t __ZN12_GLOBAL__N_18fromUuidERK11CFUUIDBytes
360a2bec b __ZN12_GLOBAL__N_1L12kRightValuesE
229026f0 s __ZN12_GLOBAL__N_1L18kRightMappedValuesE
360a2f38 b __ZN12_GLOBAL__N_1L7kValuesE
228b6274 t __ZN13MmsDateHeader10parseValueEPKc
228b6258 t __ZN13MmsDateHeaderC1EPK17MmsHeaderEncodingj
228b639c t __ZN13MmsDateHeaderD0Ev
228b6398 t __ZN13MmsDateHeaderD1Ev
228b4618 t __ZN13MmsFromHeader10parseValueEPKc
228b4688 t __ZN13MmsFromHeader11decodeValueER13MmsPduDecoder
228b4590 t __ZN13MmsFromHeaderC1EPK17MmsHeaderEncoding
228b47bc t __ZN13MmsFromHeaderD0Ev
228b4790 t __ZN13MmsFromHeaderD1Ev
228b7e28 t __ZN13MmsPduDecoder10decodeByteERh
228b8f80 t __ZN13MmsPduDecoder11_decodeBodyEP10MmsMessage
228b95bc t __ZN13MmsPduDecoder11dumpMmsDataEPKcPKvm
228b7ec4 t __ZN13MmsPduDecoder12decodeStringERNSt3__112basic_stringIcNS0_11char_traitsIcEENS0_9allocatorIcEEEEj
228b8700 t __ZN13MmsPduDecoder13_decodeHeaderEPK20MmsHeaderEncodingMap
228b8850 t __ZN13MmsPduDecoder13decodeHeadersEP18MmsHeaderContainer
228b9368 t __ZN13MmsPduDecoder13decodeMessageEbb
228b92b0 t __ZN13MmsPduDecoder14printDebugInfoEP10MmsMessage
228b8bdc t __ZN13MmsPduDecoder15_decodeMimePartEj
228b7e54 t __ZN13MmsPduDecoder15decodeHttpTokenERNSt3__112basic_stringIcNS0_11char_traitsIcEENS0_9allocatorIcEEEE
228b913c t __ZN13MmsPduDecoder17decodeContentTypeEv
228b83ac t __ZN13MmsPduDecoder19_decodeSimpleHeaderEPK20MmsHeaderEncodingMap
228b817c t __ZN13MmsPduDecoder19decodeEncodedStringERNSt3__112basic_stringIcNS0_11char_traitsIcEENS0_9allocatorIcEEEERjPj
228b7f5c t __ZN13MmsPduDecoder19decodeWspTextStringERNSt3__112basic_stringIcNS0_11char_traitsIcEENS0_9allocatorIcEEEE
228b88b8 t __ZN13MmsPduDecoder20_convertMimePartBodyEP11MmsMimePart
228b8554 t __ZN13MmsPduDecoder20_decodeEncodedHeaderEPK20MmsHeaderEncodingMap
228b8a30 t __ZN13MmsPduDecoder20_decodeMultipartBodyERNSt3__16vectorIP11MmsMimePartNS0_9allocatorIS3_EEEE
228b8020 t __ZN13MmsPduDecoder20decodeWspLongIntegerERj
228b7f94 t __ZN13MmsPduDecoder20decodeWspValueLengthERj
228b878c t __ZN13MmsPduDecoder21_decodeMessageHeadersEP10MmsMessage
228b8724 t __ZN13MmsPduDecoder21_decodeSpecificHeaderEPK20MmsHeaderEncodingMapPKcb
228b809c t __ZN13MmsPduDecoder21decodeWspIntegerValueERj
228b8078 t __ZN13MmsPduDecoder21decodeWspShortIntegerERj
228b80d8 t __ZN13MmsPduDecoder23decodeWspExtensionMediaERNSt3__112basic_stringIcNS0_11char_traitsIcEENS0_9allocatorIcEEEE
228b7fc0 t __ZN13MmsPduDecoder23decodeWspUintvarIntegerERj
228b80ec t __ZN13MmsPduDecoder28convertStringToTargetCharsetERKNSt3__112basic_stringIcNS0_11char_traitsIcEENS0_9allocatorIcEEEERS6_jj
228b89a4 t __ZN13MmsPduDecoder31_decodeMultipartAlternativePartEj
228b80e0 t __ZN13MmsPduDecoder35convertStringToTargetCharsetInPlaceERNSt3__112basic_stringIcNS0_11char_traitsIcEENS0_9allocatorIcEEEEjj
228b8310 t __ZN13MmsPduDecoder4skipEj
228b7e44 t __ZN13MmsPduDecoder8skipByteEv
228b9548 t __ZN13MmsPduDecoder9decodeSmsERlRNSt3__112basic_stringIcNS1_11char_traitsIcEENS1_9allocatorIcEEEES8_S8_S8_
228b7d90 t __ZN13MmsPduDecoderC1EPKvm
228b7e0c t __ZN13MmsPduDecoderC1ERS_m
228b7dbc t __ZN13MmsPduDecoderC2ERS_m
228b97ac t __ZN13MmsPduEncoder10encodeByteEh
228b9df4 t __ZN13MmsPduEncoder11_encodeBodyEP10MmsMessage
228b97b8 t __ZN13MmsPduEncoder12encodeStringEPKc
228b9a68 t __ZN13MmsPduEncoder13encodeHeadersEPK18MmsHeaderContainer
228b9eac t __ZN13MmsPduEncoder13encodeMessageEP10MmsMessage
228b9ba8 t __ZN13MmsPduEncoder15_encodeMimePartEPK11MmsMimePartj
228b97b4 t __ZN13MmsPduEncoder15encodeHttpTokenEPKc
228b9924 t __ZN13MmsPduEncoder19encodeEncodedStringERKNSt3__112basic_stringIcNS0_11char_traitsIcEENS0_9allocatorIcEEEEj
228b98f4 t __ZN13MmsPduEncoder19encodeWspTextStringEPKc
228b97f4 t __ZN13MmsPduEncoder20encodeWspLongIntegerEj
228b98c8 t __ZN13MmsPduEncoder20encodeWspValueLengthEj
228b985c t __ZN13MmsPduEncoder21encodeWspIntegerValueEj
228b97e8 t __ZN13MmsPduEncoder21encodeWspShortIntegerEh
228b991c t __ZN13MmsPduEncoder23encodeWspExtensionMediaEPKc
228b9870 t __ZN13MmsPduEncoder23encodeWspUintvarIntegerEj
228b9920 t __ZN13MmsPduEncoder23encodeWspWellKnownMediaEj
228b9a50 t __ZN13MmsPduEncoder6appendERS_
228b9ed8 t __ZN13MmsPduEncoder9encodeSmsElPKcS1_S1_S1_
228b9790 t __ZN13MmsPduEncoderC1Ev
228ecd0c t __ZN13SymbolMapping13mapAllSymbolsEPK14__CFDictionary
228eccf8 t __ZN13SymbolMapping16getSymbolMappingEPK10__CFString
228a53a4 t __ZN14CSIPhoneNumber27convertLettersToPhoneNumberEv
228a54cc t __ZN14CSIPhoneNumberC1ERKNSt3__112basic_stringIcNS0_11char_traitsIcEENS0_9allocatorIcEEEE
228b26b0 t __ZN14MmsContentType18contentTypeForNameEPKc
228b25fc t __ZN14MmsContentType25encodedContentTypeForNameEPKc
228b2838 t __ZN14MmsContentType25multipartMixedContentTypeEv
228b25ac t __ZN14MmsContentType25nameForEncodedContentTypeEhRNSt3__112basic_stringIcNS0_11char_traitsIcEENS0_9allocatorIcEEEE
228b2880 t __ZN14MmsContentType27multipartRelatedContentTypeEv
228b2584 t __ZN14MmsContentTypeD0Ev
228b2560 t __ZN14MmsContentTypeD1Ev
228bf72c t __ZN14MmsEmptyHeader10parseValueEPKc
228bf74c t __ZN14MmsEmptyHeader11decodeValueER13MmsPduDecoder
228bf714 t __ZN14MmsEmptyHeaderC1EPK17MmsHeaderEncoding
228bf7ac t __ZN14MmsEmptyHeaderD0Ev
228bf7a8 t __ZN14MmsEmptyHeaderD1Ev
228b4330 t __ZN14MmsYesNoHeader15createPrototypeEv
228b43e0 t __ZN14MmsYesNoHeaderD0Ev
228b43dc t __ZN14MmsYesNoHeaderD1Ev
228b24d4 t __ZN15MmsBinaryHeaderC2EPK17MmsHeaderEncoding
228b24ec t __ZN15MmsBinaryHeaderC2ERKS_
228b250c t __ZN15MmsBinaryHeaderD0Ev
228b2508 t __ZN15MmsBinaryHeaderD1Ev
228b2504 t __ZN15MmsBinaryHeaderD2Ev
228c1d28 t __ZN15MmsExpiryHeader10parseValueEPKc
228c1d2c t __ZN15MmsExpiryHeader11decodeValueER13MmsPduDecoder
228c1d08 t __ZN15MmsExpiryHeaderC1EPK17MmsHeaderEncodingj
228c1fac t __ZN15MmsExpiryHeaderD0Ev
228c1fa8 t __ZN15MmsExpiryHeaderD1Ev
228b9f9c t __ZN15MmsSimpleHeader10decodeNameER13MmsPduDecoder
228b9fcc t __ZN15MmsSimpleHeader10parseValueEPKc
228b9fdc t __ZN15MmsSimpleHeader11decodeValueER13MmsPduDecoder
228b9f98 t __ZN15MmsSimpleHeaderC1EPKcS1_
228b9f34 t __ZN15MmsSimpleHeaderC2EPKcS1_
228ba0ec t __ZN15MmsSimpleHeaderD0Ev
228ba0bc t __ZN15MmsSimpleHeaderD1Ev
228ba170 t __ZN15MmsStringHeader10parseValueEPKc
228ba198 t __ZN15MmsStringHeader13convertStringERKNSt3__112basic_stringIcNS0_11char_traitsIcEENS0_9allocatorIcEEEERS6_jj
228ba124 t __ZN15MmsStringHeaderC2EPK17MmsHeaderEncodingPKc
228ba798 t __ZN15MmsStringHeaderD0Ev
228ba770 t __ZN15MmsStringHeaderD1Ev
228c0214 t __ZN16MmsCharsetHeader10parseValueEPKc
228c0178 t __ZN16MmsCharsetHeader20cfEncodingForMibEnumEj
228c008c t __ZN16MmsCharsetHeader21charsetNameForMibEnumEj
228c01ac t __ZN16MmsCharsetHeader21mibEnumForCharsetNameEPKc
228c01fc t __ZN16MmsCharsetHeaderC1EPK17MmsHeaderEncodingj
228c02ac t __ZN16MmsCharsetHeaderD0Ev
228c02a8 t __ZN16MmsCharsetHeaderD1Ev
228b5f68 t __ZN16MmsIntegerHeader10parseValueEPKc
228b5f80 t __ZN16MmsIntegerHeader11decodeValueER13MmsPduDecoder
228b5f4c t __ZN16MmsIntegerHeaderC1EPK17MmsHeaderEncodingj
228b5f30 t __ZN16MmsIntegerHeaderC2EPK17MmsHeaderEncodingj
228b6374 t __ZN16MmsIntegerHeaderD0Ev
228b6370 t __ZN16MmsIntegerHeaderD1Ev
228bfb90 t __ZN16MmsMMFlagsHeader10parseValueEPKc
228bfc04 t __ZN16MmsMMFlagsHeader11decodeValueER13MmsPduDecoder
228bfb34 t __ZN16MmsMMFlagsHeaderC1EPK17MmsHeaderEncodinghPKc
228bfadc t __ZN16MmsMMFlagsHeaderC2EPK17MmsHeaderEncodinghPKc
228bfb60 t __ZN16MmsMMFlagsHeaderD0Ev
228bfb38 t __ZN16MmsMMFlagsHeaderD1Ev
228ba570 t __ZN16MmsSubjectHeader11decodeValueER13MmsPduDecoder
228ba558 t __ZN16MmsSubjectHeaderC1EPK17MmsHeaderEncodingPKc
228ba8f8 t __ZN16MmsSubjectHeaderD0Ev
228ba8d0 t __ZN16MmsSubjectHeaderD1Ev
228b6144 t __ZN16MmsVersionHeader10parseValueEPKc
228b6128 t __ZN16MmsVersionHeaderC1EPK17MmsHeaderEncodingj
228b6388 t __ZN16MmsVersionHeaderD0Ev
228b6384 t __ZN16MmsVersionHeaderD1Ev
228b54f8 t __ZN17MmsHeaderEncodingC1ERNSt3__110unique_ptrI15MmsBinaryHeaderNS0_14default_deleteIS2_EEEEhPKc
228b4954 t __ZN18MmsHeaderContainer10addHeadersERKS_
228b4c70 t __ZN18MmsHeaderContainer11contentTypeEv
228b4ab8 t __ZN18MmsHeaderContainer12createHeaderEPKc
228b4b40 t __ZN18MmsHeaderContainer14headerWithNameEPKc
228b4c90 t __ZN18MmsHeaderContainer14setContentTypeEPKc
228b4cc0 t __ZN18MmsHeaderContainer14setContentTypeERNSt3__110unique_ptrI14MmsContentTypeNS0_14default_deleteIS2_EEEE
228b4c40 t __ZN18MmsHeaderContainer17contentTypeHeaderEv
228b48a4 t __ZN18MmsHeaderContainer19contentTypeEncodingEv
360a2bac s __ZN18MmsHeaderContainer20_contentTypeEncodingE
228b49f0 t __ZN18MmsHeaderContainer9addHeaderEP9MmsHeaderb
228b4ad0 t __ZN18MmsHeaderContainer9addHeaderEPKcS1_b
228b491c t __ZN18MmsHeaderContainerC2ERKS_
228b48f4 t __ZN18MmsHeaderContainerC2Ev
228b49e0 t __ZN18MmsHeaderContainerD0Ev
228b49dc t __ZN18MmsHeaderContainerD1Ev
228b498c t __ZN18MmsHeaderContainerD2Ev
228ba2e8 t __ZN19MmsTextStringHeader11decodeValueER13MmsPduDecoder
228ba268 t __ZN19MmsTextStringHeaderC1EPK17MmsHeaderEncodingPKc
228ba7f0 t __ZN19MmsTextStringHeaderD0Ev
228ba7c8 t __ZN19MmsTextStringHeaderD1Ev
228c2a64 T __ZN19NetworkNotification14_ConvertToBoolEPK10__CFStringRPKv
228c2ae0 T __ZN19NetworkNotification14_ConvertToDateEPK10__CFStringRPKv
228c28cc T __ZN19NetworkNotification14setValueForKeyEPK10__CFStringS2_NS_24NotificationTrackChangesE
228c2bb0 T __ZN19NetworkNotification15_GetTypeForNameEPK10__CFString
228c2b4c T __ZN19NetworkNotification16_ConvertToNumberEPK10__CFStringRPKv
228c27e8 T __ZN19NetworkNotification18notificationStringEv
228c27d8 T __ZN19NetworkNotification18parsedNotificationEv
228c294c T __ZN19NetworkNotification21_GetFinalFormForValueEPK10__CFStringS2_RPKv
228c24cc T __ZN19NetworkNotification24_parseNotificationStringEv
228c2ec4 T __ZN19NetworkNotification30_NotificationKeyIsValidForTypeEPK10__CFString
228c28c8 T __ZN19NetworkNotification3urlEv
228c27ac T __ZN19NetworkNotification4nameEv
228c27a8 T __ZN19NetworkNotification4typeEv
228c26c8 T __ZN19NetworkNotificationC1EPK10__CFString
228c2724 T __ZN19NetworkNotificationC1ERKNSt3__112basic_stringIcNS0_11char_traitsIcEENS0_9allocatorIcEEEE
228c247c T __ZN19NetworkNotificationC2EPK10__CFString
228c26cc T __ZN19NetworkNotificationC2ERKNSt3__112basic_stringIcNS0_11char_traitsIcEENS0_9allocatorIcEEEE
228c27a4 T __ZN19NetworkNotificationD1Ev
228c277c T __ZN19NetworkNotificationD2Ev
228bf7f0 t __ZN20MmsConstrainedHeader10parseValueEPKc
228bf8b4 t __ZN20MmsConstrainedHeader11decodeValueER13MmsPduDecoder
228bf7bc t __ZN20MmsConstrainedHeaderC1EPK17MmsHeaderEncodingPKc
228bf95c t __ZN20MmsConstrainedHeaderD0Ev
228bf934 t __ZN20MmsConstrainedHeaderD1Ev
228b3ee0 t __ZN20MmsContentTypeHeader10parseValueEPKc
228b3f20 t __ZN20MmsContentTypeHeader11decodeValueER13MmsPduDecoder
228b3e4c t __ZN20MmsContentTypeHeaderC1EPK17MmsHeaderEncodingRNSt3__110unique_ptrI14MmsContentTypeNS3_14default_deleteIS5_EEEE
228b3e2c t __ZN20MmsContentTypeHeaderC1Ev
228b3e70 t __ZN20MmsContentTypeHeaderC2ERKS_
228b3ed0 t __ZN20MmsContentTypeHeaderD0Ev
228b3ecc t __ZN20MmsContentTypeHeaderD1Ev
228b3ea0 t __ZN20MmsContentTypeHeaderD2Ev
228b40dc t __ZN20MmsEnumerationHeader10parseValueEPKc
228b4150 t __ZN20MmsEnumerationHeader11decodeValueER13MmsPduDecoder
228b404c t __ZN20MmsEnumerationHeader15addNameForValueEPKch
228b40fc t __ZN20MmsEnumerationHeader15parseNamedValueEPKc
228b4000 t __ZN20MmsEnumerationHeaderC1EPK17MmsHeaderEncodingh
228b3fcc t __ZN20MmsEnumerationHeaderC2EPK17MmsHeaderEncodingh
228b403c t __ZN20MmsEnumerationHeaderD0Ev
228b4038 t __ZN20MmsEnumerationHeaderD1Ev
228b4004 t __ZN20MmsEnumerationHeaderD2Ev
228b55a4 t __ZN20MmsHeaderEncodingMap11addEncodingEPK17MmsHeaderEncoding
228b5560 t __ZN20MmsHeaderEncodingMap11addEncodingEhPKcP15MmsBinaryHeader
228b5538 t __ZN20MmsHeaderEncodingMapC1Ev
228c1fdc t __ZN20MmsIndexedDateHeader10parseValueEPKc
228c1fe0 t __ZN20MmsIndexedDateHeader11decodeValueER13MmsPduDecoder
228c1fbc t __ZN20MmsIndexedDateHeaderC1EPK17MmsHeaderEncodingjj
228c21f4 t __ZN20MmsIndexedDateHeaderD0Ev
228c21f0 t __ZN20MmsIndexedDateHeaderD1Ev
228b27fc t __ZN21MmsEncodedContentTypeC1Eh
228b2f60 t __ZN21MmsEncodedContentTypeD0Ev
228b2f3c t __ZN21MmsEncodedContentTypeD1Ev
228b2bb8 t __ZN21MmsGeneralContentType10fromStringEPKc
228b2c08 t __ZN21MmsGeneralContentTypeC2EPKcS1_
228b2fcc t __ZN21MmsGeneralContentTypeD0Ev
228b2f88 t __ZN21MmsGeneralContentTypeD1Ev
228c113c t __ZN21MmsMessageClassHeader10parseValueEPKc
228c117c t __ZN21MmsMessageClassHeader11decodeValueER13MmsPduDecoder
228c104c t __ZN21MmsMessageClassHeader15createPrototypeEv
228c1228 t __ZN21MmsMessageClassHeaderD0Ev
228c1200 t __ZN21MmsMessageClassHeaderD1Ev
228c1914 t __ZN21MmsParameterContainer10setCharsetEj
228c1848 t __ZN21MmsParameterContainer15parseParametersEPKc
228c195c t __ZN21MmsParameterContainer6decodeER13MmsPduDecoder
228c1664 t __ZN21MmsParameterContainerC1ERKS_
228c164c t __ZN21MmsParameterContainerC1Ev
228c1680 t __ZN21MmsParameterContainerD0Ev
228c167c t __ZN21MmsParameterContainerD1Ev
228ba3a0 t __ZN21MmsQuotedStringHeader11decodeValueER13MmsPduDecoder
228ba320 t __ZN21MmsQuotedStringHeaderC1EPK17MmsHeaderEncodingPKc
228ba848 t __ZN21MmsQuotedStringHeaderD0Ev
228ba820 t __ZN21MmsQuotedStringHeaderD1Ev
228ba504 t __ZN22MmsEncodedStringHeader10parseValueEPKc
228ba4d0 t __ZN22MmsEncodedStringHeader11decodeValueER13MmsPduDecoder
228ba454 t __ZN22MmsEncodedStringHeaderC1EPK17MmsHeaderEncodingPKc
228ba3f8 t __ZN22MmsEncodedStringHeaderC2EPK17MmsHeaderEncodingPKc
228ba8a0 t __ZN22MmsEncodedStringHeaderD0Ev
228ba878 t __ZN22MmsEncodedStringHeaderD1Ev
228c1aa0 t __ZN27MmsContentDispositionHeader10parseValueEPKc
228c1b5c t __ZN27MmsContentDispositionHeader11decodeValueER13MmsPduDecoder
228c1990 t __ZN27MmsContentDispositionHeader15createPrototypeEb
228c1ca0 t __ZN27MmsContentDispositionHeader33getContentDispositionEncodingByteEv
228c1c90 t __ZN27MmsContentDispositionHeader33setContentDispositionEncodingByteEh
228c1cd8 t __ZN27MmsContentDispositionHeaderD0Ev
228c1cb0 t __ZN27MmsContentDispositionHeaderD1Ev
228ba6d8 t __ZN29MmsIndexedEncodedStringHeader11decodeValueER13MmsPduDecoder
228ba634 t __ZN29MmsIndexedEncodedStringHeaderC1EPK17MmsHeaderEncodingjPKc
228ba950 t __ZN29MmsIndexedEncodedStringHeaderD0Ev
228ba928 t __ZN29MmsIndexedEncodedStringHeaderD1Ev
228e3b3c t __ZN3ctu2cf11CFSharedRefI14__CFDictionaryEC2IKvvEERKNS_8_CreatedIT_EE
228c69dc t __ZN3ctu2cf11CFSharedRefIK10__CFNumberEC2IKvvEERKNS0_7_RetainIT_EE
228bf2b8 t __ZN3ctu2cf11CFSharedRefIK10__CFStringEC2IKvvEERKNS0_7_RetainIT_EE
228bd398 t __ZN3ctu2cf11CFSharedRefIK10__CFStringEC2IKvvEERKNS1_IT_EE
228c004c t __ZN3ctu2cf11CFSharedRefIK10__CFStringEC2IKvvEERKNS_8_CreatedIT_EE
228e108c t __ZN3ctu2cf11CFSharedRefIK10__CFStringEaSIKvvEERS4_RKNS_8_CreatedIT_EE
228b19c4 t __ZN3ctu2cf11CFSharedRefIK11__CFBooleanEC2IKvvEERKNS_8_CreatedIT_EE
228c69b0 t __ZN3ctu2cf11CFSharedRefIK14__CFDictionaryEC2IKvvEERKNS0_7_RetainIT_EE
228c8f00 t __ZN3ctu2cf11CFSharedRefIK14__CFDictionaryEC2IKvvEERKNS1_IT_EE
228bf1e0 t __ZN3ctu2cf11CFSharedRefIK14__CFDictionaryEC2IKvvEERKNS_8_CreatedIT_EE
228ebcac t __ZN3ctu2cf11CFSharedRefIK14__CFDictionaryEC2IS2_vEERKNS1_IT_EE
228d9364 t __ZN3ctu2cf11CFSharedRefIK8__CFDataEC2IKvvEERKNS0_7_RetainIT_EE
228bd36c t __ZN3ctu2cf11CFSharedRefIK8__CFDataEC2IKvvEERKNS1_IT_EE
228df864 t __ZN3ctu2cf11CFSharedRefIK8__CFDataEC2IKvvEERKNS_8_CreatedIT_EE
228bd3c4 t __ZN3ctu2cf11CFSharedRefIK9__CFArrayEC2IKvvEERKNS1_IT_EE
228c8704 t __ZN3ctu2cf11CFSharedRefIK9__CFArrayEC2IKvvEERKNS_8_CreatedIT_EE
         U __ZN3ctu2cf12convert_copyERPK10__CFStringRKNSt3__112basic_stringIcNS5_11char_traitsIcEENS5_9allocatorIcEEEEmPK13__CFAllocator
228b1968 t __ZN3ctu2cf19dyn_cast_or_defaultINS0_11CFSharedRefIK10__CFStringEENSt3__112basic_stringIcNS6_11char_traitsIcEENS6_9allocatorIcEEEEEET_T0_SD_
228df8a4 t __ZN3ctu2cf19dyn_cast_or_defaultIPK10__CFStringS4_EET_T0_S5_
228ebcc8 t __ZN3ctu2cf19dyn_cast_or_defaultIPK14__CFDictionaryPS2_EET_T0_S6_
         U __ZN3ctu2cf6assignERNSt3__112basic_stringIcNS1_11char_traitsIcEENS1_9allocatorIcEEEEPK10__CFString
         U __ZN3ctu2cf6assignERNSt3__112basic_stringIcNS1_11char_traitsIcEENS1_9allocatorIcEEEEPKv
         U __ZN3ctu2cf6assignERbPK11__CFBoolean
         U __ZN3ctu2cf6assignERjPK10__CFNumber
228c7a20 t __ZN3ctu2cf6detail18TakeOwnershipProxyIK9__CFArrayED2Ev
228bd270 t __ZN3ctu9SharedRefIK10__CFStringNS_2cf16cfretain_functorENS3_17cfrelease_functorES2_EaSERKS6_
228d7f5c t __ZN3ctu9SharedRefIK14__CFDictionaryNS_2cf16cfretain_functorENS3_17cfrelease_functorES2_EaSERKS6_
228bd248 t __ZN3ctu9SharedRefIK8__CFDataNS_2cf16cfretain_functorENS3_17cfrelease_functorES2_EaSERKS6_
         U __ZN3ctu9cf_to_xpcEPKv
         U __ZN3ctu9xpc_to_cfEPv
228bd310 t __ZN3xpc12dict_creatorC2Ev
         U __ZN3xpc19dyn_cast_or_defaultERKNS_6objectEPKc
         U __ZN3xpc19dyn_cast_or_defaultERKNS_6objectERKNSt3__112basic_stringIcNS3_11char_traitsIcEENS3_9allocatorIcEEEE
         U __ZN3xpc19dyn_cast_or_defaultERKNS_6objectEb
         U __ZN3xpc19dyn_cast_or_defaultERKNS_6objectEd
         U __ZN3xpc19dyn_cast_or_defaultERKNS_6objectEi
         U __ZN3xpc19dyn_cast_or_defaultERKNS_6objectEj
         U __ZN3xpc19dyn_cast_or_defaultERKNS_6objectEl
         U __ZN3xpc19dyn_cast_or_defaultERKNS_6objectEm
         U __ZN3xpc19dyn_cast_or_defaultERKNS_6objectEx
         U __ZN3xpc19dyn_cast_or_defaultERKNS_6objectEy
228ce548 t __ZN3xpc5array8iteratorC2ES0_m
         U __ZN3xpc6bridgeERKNS_6objectE
228b47ec t __ZN9MmsHeaderD2Ev
228b705c t __ZNK10MmsMessage11encodingMapEv
228b71ac t __ZNK10MmsMessage19requiresContentTypeEv
228b70d8 t __ZNK10MmsMessage3logEib
228b652c t __ZNK10MmsMessage4partEj
228b7174 t __ZNK10MmsMessage7isEmptyEv
228b6520 t __ZNK10MmsMessage9partCountEv
228b76c0 t __ZNK11MmsMimePart11encodingMapEv
228b76dc t __ZNK11MmsMimePart3logEib
228d4fe0 t __ZNK13CTServerState21dispatchToClient_syncEU13block_pointerFvvE
228d5104 t __ZNK13CTServerState21sendNotification_syncE7CTEventPK10__CFStringPK14__CFDictionary
228b62ac t __ZNK13MmsDateHeader13valueAsStringERNSt3__112basic_stringIcNS0_11char_traitsIcEENS0_9allocatorIcEEEE
228b6314 t __ZNK13MmsDateHeader14createInstanceEv
228b6364 t __ZNK13MmsDateHeader14headerTypeNameEv
228b633c t __ZNK13MmsDateHeader4copyEv
228b4730 t __ZNK13MmsFromHeader11encodeValueER13MmsPduEncoder
228b4650 t __ZNK13MmsFromHeader13valueAsStringERNSt3__112basic_stringIcNS0_11char_traitsIcEENS0_9allocatorIcEEEE
228b45ac t __ZNK13MmsFromHeader14createInstanceEv
228b4784 t __ZNK13MmsFromHeader14headerTypeNameEv
228b45d0 t __ZNK13MmsFromHeader4copyEv
228b8324 t __ZNK13MmsPduDecoder15_printableBytesEjjRNSt3__112basic_stringIcNS0_11char_traitsIcEENS0_9allocatorIcEEEE
228b7e10 t __ZNK13MmsPduDecoder8peekByteERh
228a550c t __ZNK14CSIPhoneNumber8getIsMMIEv
228a5660 t __ZNK14CSIPhoneNumber9getIsUSSDEv
228b2a64 t __ZNK14MmsContentType11isMultipartEv
228b2ac4 t __ZNK14MmsContentType22isMultipartAlternativeEv
228b2a30 t __ZNK14MmsContentType7compareEPKcS1_
228b28c8 t __ZNK14MmsContentType8toStringERNSt3__112basic_stringIcNS0_11char_traitsIcEENS0_9allocatorIcEEEE
228bf750 t __ZNK14MmsEmptyHeader11encodeValueER13MmsPduEncoder
228bf730 t __ZNK14MmsEmptyHeader13valueAsStringERNSt3__112basic_stringIcNS0_11char_traitsIcEENS0_9allocatorIcEEEE
228bf754 t __ZNK14MmsEmptyHeader14createInstanceEv
228bf79c t __ZNK14MmsEmptyHeader14headerTypeNameEv
228bf778 t __ZNK14MmsEmptyHeader4copyEv
228b4380 t __ZNK14MmsYesNoHeader14createInstanceEv
228b43a4 t __ZNK14MmsYesNoHeader4copyEv
228b2540 t __ZNK15MmsBinaryHeader10encodeNameER13MmsPduEncoder
228b251c t __ZNK15MmsBinaryHeader4nameEv
228c1d9c t __ZNK15MmsExpiryHeader11encodeValueER13MmsPduEncoder
228c1e3c t __ZNK15MmsExpiryHeader13valueAsStringERNSt3__112basic_stringIcNS0_11char_traitsIcEENS0_9allocatorIcEEEE
228c1de8 t __ZNK15MmsExpiryHeader14createInstanceEv
228c1f9c t __ZNK15MmsExpiryHeader14headerTypeNameEv
228c1e10 t __ZNK15MmsExpiryHeader4copyEv
228b9fe8 t __ZNK15MmsSimpleHeader10encodeNameER13MmsPduEncoder
228ba01c t __ZNK15MmsSimpleHeader11encodeValueER13MmsPduEncoder
228ba050 t __ZNK15MmsSimpleHeader13valueAsStringERNSt3__112basic_stringIcNS0_11char_traitsIcEENS0_9allocatorIcEEEE
228ba0b0 t __ZNK15MmsSimpleHeader14headerTypeNameEv
228ba064 t __ZNK15MmsSimpleHeader4copyEv
228ba03c t __ZNK15MmsSimpleHeader4nameEv
228ba09c t __ZNK15MmsSimpleHeader5valueEv
228ba184 t __ZNK15MmsStringHeader13valueAsStringERNSt3__112basic_stringIcNS0_11char_traitsIcEENS0_9allocatorIcEEEE
228c022c t __ZNK16MmsCharsetHeader13valueAsStringERNSt3__112basic_stringIcNS0_11char_traitsIcEENS0_9allocatorIcEEEE
228c0250 t __ZNK16MmsCharsetHeader14createInstanceEv
228c029c t __ZNK16MmsCharsetHeader14headerTypeNameEv
228c0274 t __ZNK16MmsCharsetHeader4copyEv
228b5f8c t __ZNK16MmsIntegerHeader11encodeValueER13MmsPduEncoder
228b5ffc t __ZNK16MmsIntegerHeader13valueAsStringERNSt3__112basic_stringIcNS0_11char_traitsIcEENS0_9allocatorIcEEEE
228b5fa0 t __ZNK16MmsIntegerHeader14createInstanceEv
228b5ff0 t __ZNK16MmsIntegerHeader14headerTypeNameEv
228b5fc8 t __ZNK16MmsIntegerHeader4copyEv
228bfc40 t __ZNK16MmsMMFlagsHeader11encodeValueER13MmsPduEncoder
228bfcf4 t __ZNK16MmsMMFlagsHeader13valueAsStringERNSt3__112basic_stringIcNS0_11char_traitsIcEENS0_9allocatorIcEEEE
228bfc90 t __ZNK16MmsMMFlagsHeader14createInstanceEv
228bfd58 t __ZNK16MmsMMFlagsHeader14headerTypeNameEv
228bfcac t __ZNK16MmsMMFlagsHeader4copyEv
228ba58c t __ZNK16MmsSubjectHeader11encodeValueER13MmsPduEncoder
228ba5fc t __ZNK16MmsSubjectHeader14createInstanceEv
228ba5b8 t __ZNK16MmsSubjectHeader4copyEv
228b61a8 t __ZNK16MmsVersionHeader13valueAsStringERNSt3__112basic_stringIcNS0_11char_traitsIcEENS0_9allocatorIcEEEE
228b6208 t __ZNK16MmsVersionHeader14createInstanceEv
228b6230 t __ZNK16MmsVersionHeader4copyEv
228b4d38 t __ZNK18MmsHeaderContainer10logHeadersEib
228b4c50 t __ZNK18MmsHeaderContainer11contentTypeEv
228b4b20 t __ZNK18MmsHeaderContainer11headerCountEv
228b4b7c t __ZNK18MmsHeaderContainer14headerWithNameEPKc
228b4c30 t __ZNK18MmsHeaderContainer17contentTypeHeaderEv
228b4bb8 t __ZNK18MmsHeaderContainer18allHeadersWithNameEPKcRNSt3__16vectorIP9MmsHeaderNS2_9allocatorIS5_EEEE
228b4cf8 t __ZNK18MmsHeaderContainer19headerValueAsStringEPKcRNSt3__112basic_stringIcNS2_11char_traitsIcEENS2_9allocatorIcEEEE
228b4d14 t __ZNK18MmsHeaderContainer20valueForStringHeaderEPKc
228b4b2c t __ZNK18MmsHeaderContainer6headerEj
228ba2f4 t __ZNK19MmsTextStringHeader11encodeValueER13MmsPduEncoder
228ba280 t __ZNK19MmsTextStringHeader14createInstanceEv
228ba314 t __ZNK19MmsTextStringHeader14headerTypeNameEv
228ba2a4 t __ZNK19MmsTextStringHeader4copyEv
228c27dc T __ZNK19NetworkNotification24copyUnparsedNotificationEv
228bf8f4 t __ZNK20MmsConstrainedHeader11encodeValueER13MmsPduEncoder
228bf814 t __ZNK20MmsConstrainedHeader13valueAsStringERNSt3__112basic_stringIcNS0_11char_traitsIcEENS0_9allocatorIcEEEE
228bf838 t __ZNK20MmsConstrainedHeader14createInstanceEv
228bf928 t __ZNK20MmsConstrainedHeader14headerTypeNameEv
228bf878 t __ZNK20MmsConstrainedHeader4copyEv
228b3f44 t __ZNK20MmsContentTypeHeader11encodeValueER13MmsPduEncoder
228b3f9c t __ZNK20MmsContentTypeHeader13valueAsStringERNSt3__112basic_stringIcNS0_11char_traitsIcEENS0_9allocatorIcEEEE
228b3f5c t __ZNK20MmsContentTypeHeader14createInstanceEv
228b3fc0 t __ZNK20MmsContentTypeHeader14headerTypeNameEv
228b3f84 t __ZNK20MmsContentTypeHeader4copyEv
228b415c t __ZNK20MmsEnumerationHeader11encodeValueER13MmsPduEncoder
228b4170 t __ZNK20MmsEnumerationHeader13valueAsStringERNSt3__112basic_stringIcNS0_11char_traitsIcEENS0_9allocatorIcEEEE
228b42d0 t __ZNK20MmsEnumerationHeader14createInstanceEv
228b4324 t __ZNK20MmsEnumerationHeader14headerTypeNameEv
228b42ec t __ZNK20MmsEnumerationHeader4copyEv
228b5668 t __ZNK20MmsHeaderEncodingMap12createHeaderEPKc
228b560c t __ZNK20MmsHeaderEncodingMap15encodingForNameEPKc
228b55f8 t __ZNK20MmsHeaderEncodingMap17encodingForNumberEh
228c2018 t __ZNK20MmsIndexedDateHeader11encodeValueER13MmsPduEncoder
228c2064 t __ZNK20MmsIndexedDateHeader13valueAsStringERNSt3__112basic_stringIcNS0_11char_traitsIcEENS0_9allocatorIcEEEE
228c2190 t __ZNK20MmsIndexedDateHeader14createInstanceEv
228c21e4 t __ZNK20MmsIndexedDateHeader14headerTypeNameEv
228c21b8 t __ZNK20MmsIndexedDateHeader4copyEv
228b2b74 t __ZNK21MmsEncodedContentType4copyEv
228b2adc t __ZNK21MmsEncodedContentType4typeEv
228b2b08 t __ZNK21MmsEncodedContentType6encodeER13MmsPduEncoder
228b2af0 t __ZNK21MmsEncodedContentType7subtypeEv
228b2dfc t __ZNK21MmsGeneralContentType4copyEv
228b2ce0 t __ZNK21MmsGeneralContentType4typeEv
228b2d08 t __ZNK21MmsGeneralContentType6encodeER13MmsPduEncoder
228b2cf4 t __ZNK21MmsGeneralContentType7subtypeEv
228c11bc t __ZNK21MmsMessageClassHeader11encodeValueER13MmsPduEncoder
228c1158 t __ZNK21MmsMessageClassHeader13valueAsStringERNSt3__112basic_stringIcNS0_11char_traitsIcEENS0_9allocatorIcEEEE
228c10c8 t __ZNK21MmsMessageClassHeader14createInstanceEv
228c11f4 t __ZNK21MmsMessageClassHeader14headerTypeNameEv
228c10f4 t __ZNK21MmsMessageClassHeader4copyEv
228c1258 t __ZNK21MmsParameterContainer11encodingMapEv
228c1950 t __ZNK21MmsParameterContainer6encodeER13MmsPduEncoder
228c18e8 t __ZNK21MmsParameterContainer7charsetEv
228c1690 t __ZNK21MmsParameterContainer8toStringERNSt3__112basic_stringIcNS0_11char_traitsIcEENS0_9allocatorIcEEEE
228ba3c0 t __ZNK21MmsQuotedStringHeader11encodeValueER13MmsPduEncoder
228ba338 t __ZNK21MmsQuotedStringHeader14createInstanceEv
228ba3ec t __ZNK21MmsQuotedStringHeader14headerTypeNameEv
228ba35c t __ZNK21MmsQuotedStringHeader4copyEv
228ba4ec t __ZNK22MmsEncodedStringHeader11encodeValueER13MmsPduEncoder
228ba458 t __ZNK22MmsEncodedStringHeader14createInstanceEv
228ba54c t __ZNK22MmsEncodedStringHeader14headerTypeNameEv
228ba48c t __ZNK22MmsEncodedStringHeader4copyEv
228c1c00 t __ZNK27MmsContentDispositionHeader10encodeNameER13MmsPduEncoder
228c1c2c t __ZNK27MmsContentDispositionHeader11encodeValueER13MmsPduEncoder
228c1b38 t __ZNK27MmsContentDispositionHeader13valueAsStringERNSt3__112basic_stringIcNS0_11char_traitsIcEENS0_9allocatorIcEEEE
228c1a18 t __ZNK27MmsContentDispositionHeader14createInstanceEv
228c1c84 t __ZNK27MmsContentDispositionHeader14headerTypeNameEv
228c1a50 t __ZNK27MmsContentDispositionHeader4copyEv
228ba714 t __ZNK29MmsIndexedEncodedStringHeader11encodeValueER13MmsPduEncoder
228ba654 t __ZNK29MmsIndexedEncodedStringHeader14createInstanceEv
228ba764 t __ZNK29MmsIndexedEncodedStringHeader14headerTypeNameEv
228ba690 t __ZNK29MmsIndexedEncodedStringHeader4copyEv
228d4b44 t __ZNK3ctu9SharedRefI14__CFDictionaryNS_2cf16cfretain_functorENS2_17cfrelease_functorES1_E3getEv
228e1088 t __ZNK3ctu9SharedRefI9__CFArrayNS_2cf16cfretain_functorENS2_17cfrelease_functorES1_E3getEv
228c69ac t __ZNK3ctu9SharedRefIK10__CFNumberNS_2cf16cfretain_functorENS3_17cfrelease_functorES2_E3getEv
228bf1dc t __ZNK3ctu9SharedRefIK10__CFStringNS_2cf16cfretain_functorENS3_17cfrelease_functorES2_E3getEv
228b1934 t __ZNK3ctu9SharedRefIK11__CFBooleanNS_2cf16cfretain_functorENS3_17cfrelease_functorES2_E3getEv
228bf1d8 t __ZNK3ctu9SharedRefIK14__CFDictionaryNS_2cf16cfretain_functorENS3_17cfrelease_functorES2_E3getEv
228bd240 t __ZNK3ctu9SharedRefIK8__CFDataNS_2cf16cfretain_functorENS3_17cfrelease_functorES2_E3getEv
228bd244 t __ZNK3ctu9SharedRefIK9__CFArrayNS_2cf16cfretain_functorENS3_17cfrelease_functorES2_E3getEv
228ce4f0 t __ZNK3ctu9SharedRefIKvNS_2cf16cfretain_functorENS2_17cfrelease_functorES1_E3getEv
228c8e00 t __ZNK3xpc12dict_creatorclINS_6objectEEES0_PKcT_
228c8e7c t __ZNK3xpc12dict_creatorclINSt3__112basic_stringIcNS2_11char_traitsIcEENS2_9allocatorIcEEEEEES0_PKcT_
228bd298 t __ZNK3xpc12dict_creatorclIPKcEES0_S3_T_
228bd1f4 t __ZNK3xpc4dict12object_proxyaSEDn
228ce430 t __ZNK3xpc4dict12object_proxycvNS_5arrayEEv
228bd21c t __ZNK3xpc4dict12object_proxycvNS_6objectEEv
228ca684 t __ZNK3xpc4dict12object_proxycvS0_Ev
228ce490 t __ZNK3xpc5array12object_proxycvNS_4dictEEv
228d4b20 t __ZNK3xpc5array12object_proxycvNS_6objectEEv
228b4814 t __ZNK9MmsHeader11fieldNumberEv
228b4818 t __ZNK9MmsHeader3logEib
228b47f0 t __ZNK9MmsHeader6encodeER13MmsPduEncoder
228b5400 t __ZNKSt3__112__hash_tableINS_17__hash_value_typeINS_12basic_stringIcNS_11char_traitsIcEENS_9allocatorIcEEEEP9MmsHeaderEENS_22__unordered_map_hasherIS7_SA_NS_4hashIS7_EELb1EEENS_21__unordered_map_equalIS7_SA_NS_8equal_toIS7_EELb1EEENS5_ISA_EEE4findIS7_EENS_21__hash_const_iteratorIPNS_11__hash_nodeISA_PvEEEERKT_
228b5e38 t __ZNKSt3__112__hash_tableINS_17__hash_value_typeINS_12basic_stringIcNS_11char_traitsIcEENS_9allocatorIcEEEEPK17MmsHeaderEncodingEENS_22__unordered_map_hasherIS7_SB_NS_4hashIS7_EELb1EEENS_21__unordered_map_equalIS7_SB_NS_8equal_toIS7_EELb1EEENS5_ISB_EEE4findIS7_EENS_21__hash_const_iteratorIPNS_11__hash_nodeISB_PvEEEERKT_
         U __ZNKSt3__112basic_stringIcNS_11char_traitsIcEENS_9allocatorIcEEE7compareEPKc
228b3d14 t __ZNKSt3__115basic_stringbufIcNS_11char_traitsIcEENS_9allocatorIcEEE3strEv
         U __ZNKSt3__120__vector_base_commonILb1EE20__throw_length_errorEv
         U __ZNKSt3__121__basic_string_commonILb1EE20__throw_length_errorEv
228b37ec t __ZNKSt3__14hashINS_12basic_stringIcNS_11char_traitsIcEENS_9allocatorIcEEEEEclERKS6_
228d7f84 t __ZNKSt3__16__treeINS_12__value_typeINS_12basic_stringIcNS_11char_traitsIcEENS_9allocatorIcEEEEN8dispatch5blockIU13block_pointerFvN3xpc4dictEEEEEENS_19__map_value_compareIS7_SF_NS_4lessIS7_EELb1EEENS5_ISF_EEE14__count_uniqueIS7_EEmRKT_
228d806c t __ZNKSt3__16__treeINS_12__value_typeIiN8dispatch5blockIU13block_pointerFvPK14__CFDictionaryEEEEENS_19__map_value_compareIiSA_NS_4lessIiEELb1EEENS_9allocatorISA_EEE4findIiEENS_21__tree_const_iteratorISA_PNS_11__tree_nodeISA_PvEEiEERKT_
         U __ZNKSt3__16locale9use_facetERNS0_2idE
         U __ZNKSt3__18ios_base6getlocEv
228b2e34 t __ZNSt3__110unique_ptrI14MmsContentTypeNS_14default_deleteIS1_EEED1Ev
228b77a0 t __ZNSt3__110unique_ptrI20MmsHeaderEncodingMapNS_14default_deleteIS1_EEED1Ev
228c0614 t __ZNSt3__112__hash_tableINS_17__hash_value_typeINS_12basic_stringIcNS_11char_traitsIcEENS_9allocatorIcEEEEP10MmsCharsetEENS_22__unordered_map_hasherIS7_SA_NS_4hashIS7_EELb1EEENS_21__unordered_map_equalIS7_SA_NS_8equal_toIS7_EELb1EEENS5_ISA_EEE20__node_insert_uniqueEPNS_11__hash_nodeISA_PvEE
228c0a74 t __ZNSt3__112__hash_tableINS_17__hash_value_typeINS_12basic_stringIcNS_11char_traitsIcEENS_9allocatorIcEEEEP10MmsCharsetEENS_22__unordered_map_hasherIS7_SA_NS_4hashIS7_EELb1EEENS_21__unordered_map_equalIS7_SA_NS_8equal_toIS7_EELb1EEENS5_ISA_EEE4findIS7_EENS_15__hash_iteratorIPNS_11__hash_nodeISA_PvEEEERKT_
228c0808 t __ZNSt3__112__hash_tableINS_17__hash_value_typeINS_12basic_stringIcNS_11char_traitsIcEENS_9allocatorIcEEEEP10MmsCharsetEENS_22__unordered_map_hasherIS7_SA_NS_4hashIS7_EELb1EEENS_21__unordered_map_equalIS7_SA_NS_8equal_toIS7_EELb1EEENS5_ISA_EEE6rehashEm
228c08a4 t __ZNSt3__112__hash_tableINS_17__hash_value_typeINS_12basic_stringIcNS_11char_traitsIcEENS_9allocatorIcEEEEP10MmsCharsetEENS_22__unordered_map_hasherIS7_SA_NS_4hashIS7_EELb1EEENS_21__unordered_map_equalIS7_SA_NS_8equal_toIS7_EELb1EEENS5_ISA_EEE8__rehashEm
228b4dd4 t __ZNSt3__112__hash_tableINS_17__hash_value_typeINS_12basic_stringIcNS_11char_traitsIcEENS_9allocatorIcEEEEP9MmsHeaderEENS_22__unordered_map_hasherIS7_SA_NS_4hashIS7_EELb1EEENS_21__unordered_map_equalIS7_SA_NS_8equal_toIS7_EELb1EEENS5_ISA_EEE12__deallocateEPNS_11__hash_nodeISA_PvEE
228b4f00 t __ZNSt3__112__hash_tableINS_17__hash_value_typeINS_12basic_stringIcNS_11char_traitsIcEENS_9allocatorIcEEEEP9MmsHeaderEENS_22__unordered_map_hasherIS7_SA_NS_4hashIS7_EELb1EEENS_21__unordered_map_equalIS7_SA_NS_8equal_toIS7_EELb1EEENS5_ISA_EEE20__node_insert_uniqueEPNS_11__hash_nodeISA_PvEE
228b5308 t __ZNSt3__112__hash_tableINS_17__hash_value_typeINS_12basic_stringIcNS_11char_traitsIcEENS_9allocatorIcEEEEP9MmsHeaderEENS_22__unordered_map_hasherIS7_SA_NS_4hashIS7_EELb1EEENS_21__unordered_map_equalIS7_SA_NS_8equal_toIS7_EELb1EEENS5_ISA_EEE4findIS7_EENS_15__hash_iteratorIPNS_11__hash_nodeISA_PvEEEERKT_
228b50f4 t __ZNSt3__112__hash_tableINS_17__hash_value_typeINS_12basic_stringIcNS_11char_traitsIcEENS_9allocatorIcEEEEP9MmsHeaderEENS_22__unordered_map_hasherIS7_SA_NS_4hashIS7_EELb1EEENS_21__unordered_map_equalIS7_SA_NS_8equal_toIS7_EELb1EEENS5_ISA_EEE6rehashEm
228b5190 t __ZNSt3__112__hash_tableINS_17__hash_value_typeINS_12basic_stringIcNS_11char_traitsIcEENS_9allocatorIcEEEEP9MmsHeaderEENS_22__unordered_map_hasherIS7_SA_NS_4hashIS7_EELb1EEENS_21__unordered_map_equalIS7_SA_NS_8equal_toIS7_EELb1EEENS5_ISA_EEE8__rehashEm
228b4db4 t __ZNSt3__112__hash_tableINS_17__hash_value_typeINS_12basic_stringIcNS_11char_traitsIcEENS_9allocatorIcEEEEP9MmsHeaderEENS_22__unordered_map_hasherIS7_SA_NS_4hashIS7_EELb1EEENS_21__unordered_map_equalIS7_SA_NS_8equal_toIS7_EELb1EEENS5_ISA_EEED2Ev
228b7bd0 t __ZNSt3__112__hash_tableINS_17__hash_value_typeINS_12basic_stringIcNS_11char_traitsIcEENS_9allocatorIcEEEEPK17MmsHeaderEncodingEENS_22__unordered_map_hasherIS7_SB_NS_4hashIS7_EELb1EEENS_21__unordered_map_equalIS7_SB_NS_8equal_toIS7_EELb1EEENS5_ISB_EEE12__deallocateEPNS_11__hash_nodeISB_PvEE
228b5938 t __ZNSt3__112__hash_tableINS_17__hash_value_typeINS_12basic_stringIcNS_11char_traitsIcEENS_9allocatorIcEEEEPK17MmsHeaderEncodingEENS_22__unordered_map_hasherIS7_SB_NS_4hashIS7_EELb1EEENS_21__unordered_map_equalIS7_SB_NS_8equal_toIS7_EELb1EEENS5_ISB_EEE20__node_insert_uniqueEPNS_11__hash_nodeISB_PvEE
228b5b2c t __ZNSt3__112__hash_tableINS_17__hash_value_typeINS_12basic_stringIcNS_11char_traitsIcEENS_9allocatorIcEEEEPK17MmsHeaderEncodingEENS_22__unordered_map_hasherIS7_SB_NS_4hashIS7_EELb1EEENS_21__unordered_map_equalIS7_SB_NS_8equal_toIS7_EELb1EEENS5_ISB_EEE4findIS7_EENS_15__hash_iteratorIPNS_11__hash_nodeISB_PvEEEERKT_
228b5c24 t __ZNSt3__112__hash_tableINS_17__hash_value_typeINS_12basic_stringIcNS_11char_traitsIcEENS_9allocatorIcEEEEPK17MmsHeaderEncodingEENS_22__unordered_map_hasherIS7_SB_NS_4hashIS7_EELb1EEENS_21__unordered_map_equalIS7_SB_NS_8equal_toIS7_EELb1EEENS5_ISB_EEE6rehashEm
228b5cc0 t __ZNSt3__112__hash_tableINS_17__hash_value_typeINS_12basic_stringIcNS_11char_traitsIcEENS_9allocatorIcEEEEPK17MmsHeaderEncodingEENS_22__unordered_map_hasherIS7_SB_NS_4hashIS7_EELb1EEENS_21__unordered_map_equalIS7_SB_NS_8equal_toIS7_EELb1EEENS5_ISB_EEE8__rehashEm
228b7bb0 t __ZNSt3__112__hash_tableINS_17__hash_value_typeINS_12basic_stringIcNS_11char_traitsIcEENS_9allocatorIcEEEEPK17MmsHeaderEncodingEENS_22__unordered_map_hasherIS7_SB_NS_4hashIS7_EELb1EEENS_21__unordered_map_equalIS7_SB_NS_8equal_toIS7_EELb1EEENS5_ISB_EEED2Ev
228b3034 t __ZNSt3__112__hash_tableINS_17__hash_value_typeINS_12basic_stringIcNS_11char_traitsIcEENS_9allocatorIcEEEEhEENS_22__unordered_map_hasherIS7_S8_NS_4hashIS7_EELb1EEENS_21__unordered_map_equalIS7_S8_NS_8equal_toIS7_EELb1EEENS5_IS8_EEE12__deallocateEPNS_11__hash_nodeIS8_PvEE
228b355c t __ZNSt3__112__hash_tableINS_17__hash_value_typeINS_12basic_stringIcNS_11char_traitsIcEENS_9allocatorIcEEEEhEENS_22__unordered_map_hasherIS7_S8_NS_4hashIS7_EELb1EEENS_21__unordered_map_equalIS7_S8_NS_8equal_toIS7_EELb1EEENS5_IS8_EEE20__node_insert_uniqueEPNS_11__hash_nodeIS8_PvEE
228b3a10 t __ZNSt3__112__hash_tableINS_17__hash_value_typeINS_12basic_stringIcNS_11char_traitsIcEENS_9allocatorIcEEEEhEENS_22__unordered_map_hasherIS7_S8_NS_4hashIS7_EELb1EEENS_21__unordered_map_equalIS7_S8_NS_8equal_toIS7_EELb1EEENS5_IS8_EEE4findIS7_EENS_15__hash_iteratorIPNS_11__hash_nodeIS8_PvEEEERKT_
228b3750 t __ZNSt3__112__hash_tableINS_17__hash_value_typeINS_12basic_stringIcNS_11char_traitsIcEENS_9allocatorIcEEEEhEENS_22__unordered_map_hasherIS7_S8_NS_4hashIS7_EELb1EEENS_21__unordered_map_equalIS7_S8_NS_8equal_toIS7_EELb1EEENS5_IS8_EEE6rehashEm
228b3898 t __ZNSt3__112__hash_tableINS_17__hash_value_typeINS_12basic_stringIcNS_11char_traitsIcEENS_9allocatorIcEEEEhEENS_22__unordered_map_hasherIS7_S8_NS_4hashIS7_EELb1EEENS_21__unordered_map_equalIS7_S8_NS_8equal_toIS7_EELb1EEENS5_IS8_EEE8__rehashEm
228b3014 t __ZNSt3__112__hash_tableINS_17__hash_value_typeINS_12basic_stringIcNS_11char_traitsIcEENS_9allocatorIcEEEEhEENS_22__unordered_map_hasherIS7_S8_NS_4hashIS7_EELb1EEENS_21__unordered_map_equalIS7_S8_NS_8equal_toIS7_EELb1EEENS5_IS8_EEED2Ev
228c032c t __ZNSt3__112__hash_tableINS_17__hash_value_typeIjP10MmsCharsetEENS_22__unordered_map_hasherIjS4_NS_4hashIjEELb1EEENS_21__unordered_map_equalIjS4_NS_8equal_toIjEELb1EEENS_9allocatorIS4_EEE20__node_insert_uniqueEPNS_11__hash_nodeIS4_PvEE
228c0a1c t __ZNSt3__112__hash_tableINS_17__hash_value_typeIjP10MmsCharsetEENS_22__unordered_map_hasherIjS4_NS_4hashIjEELb1EEENS_21__unordered_map_equalIjS4_NS_8equal_toIjEELb1EEENS_9allocatorIS4_EEE4findIjEENS_15__hash_iteratorIPNS_11__hash_nodeIS4_PvEEEERKT_
228c048c t __ZNSt3__112__hash_tableINS_17__hash_value_typeIjP10MmsCharsetEENS_22__unordered_map_hasherIjS4_NS_4hashIjEELb1EEENS_21__unordered_map_equalIjS4_NS_8equal_toIjEELb1EEENS_9allocatorIS4_EEE6rehashEm
228c0528 t __ZNSt3__112__hash_tableINS_17__hash_value_typeIjP10MmsCharsetEENS_22__unordered_map_hasherIjS4_NS_4hashIjEELb1EEENS_21__unordered_map_equalIjS4_NS_8equal_toIjEELb1EEENS_9allocatorIS4_EEE8__rehashEm
         U __ZNSt3__112__next_primeEm
         U __ZNSt3__112basic_stringIcNS_11char_traitsIcEENS_9allocatorIcEEE6__initEPKcm
         U __ZNSt3__112basic_stringIcNS_11char_traitsIcEENS_9allocatorIcEEE6__initEPKcmm
         U __ZNSt3__112basic_stringIcNS_11char_traitsIcEENS_9allocatorIcEEE6__initEmc
228b3d50 t __ZNSt3__112basic_stringIcNS_11char_traitsIcEENS_9allocatorIcEEE6__initIPcEENS_9enable_ifIXsr21__is_forward_iteratorIT_EE5valueEvE4typeES9_S9_
         U __ZNSt3__112basic_stringIcNS_11char_traitsIcEENS_9allocatorIcEEE6appendEPKc
         U __ZNSt3__112basic_stringIcNS_11char_traitsIcEENS_9allocatorIcEEE6appendEPKcm
228ed07c t __ZNSt3__112basic_stringIcNS_11char_traitsIcEENS_9allocatorIcEEE6appendEPKcm$shim
         U __ZNSt3__112basic_stringIcNS_11char_traitsIcEENS_9allocatorIcEEE6assignEPKc
         U __ZNSt3__112basic_stringIcNS_11char_traitsIcEENS_9allocatorIcEEE6assignEPKcm
         U __ZNSt3__112basic_stringIcNS_11char_traitsIcEENS_9allocatorIcEEE6resizeEmc
         U __ZNSt3__112basic_stringIcNS_11char_traitsIcEENS_9allocatorIcEEE7reserveEm
         U __ZNSt3__112basic_stringIcNS_11char_traitsIcEENS_9allocatorIcEEE9push_backEc
228ed070 t __ZNSt3__112basic_stringIcNS_11char_traitsIcEENS_9allocatorIcEEE9push_backEc$shim
         U __ZNSt3__112basic_stringIcNS_11char_traitsIcEENS_9allocatorIcEEEC1ERKS5_
         U __ZNSt3__112basic_stringIcNS_11char_traitsIcEENS_9allocatorIcEEEC1ERKS5_mmRKS4_
         U __ZNSt3__112basic_stringIcNS_11char_traitsIcEENS_9allocatorIcEEED1Ev
         U __ZNSt3__112basic_stringIcNS_11char_traitsIcEENS_9allocatorIcEEEaSERKS5_
228ecf74 t __ZNSt3__112basic_stringIcNS_11char_traitsIcEENS_9allocatorIcEEEaSERKS5_$shim
228ceab4 t __ZNSt3__113__tree_removeIPNS_16__tree_node_baseIPvEEEEvT_S5_
228b43f0 t __ZNSt3__113__vector_baseI19MmsEnumerationValueNS_9allocatorIS1_EEED2Ev
228ce594 t __ZNSt3__113__vector_baseIN3ctu2cf11CFSharedRefIKvEENS_9allocatorIS5_EEED2Ev
228eb168 t __ZNSt3__113__vector_baseIN8dispatch5blockIU13block_pointerFvP12NSDictionaryEEENS_9allocatorIS7_EEED2Ev
228b193c t __ZNSt3__113__vector_baseINS_12basic_stringIcNS_11char_traitsIcEENS_9allocatorIcEEEENS4_IS6_EEED2Ev
228b71f4 t __ZNSt3__113__vector_baseIP11MmsMimePartNS_9allocatorIS2_EEED2Ev
228b4df4 t __ZNSt3__113__vector_baseIP9MmsHeaderNS_9allocatorIS2_EEED2Ev
228b7bf0 t __ZNSt3__113__vector_baseIPK17MmsHeaderEncodingNS_9allocatorIS3_EEED2Ev
228ce56c t __ZNSt3__113__vector_baseIPKvNS_9allocatorIS2_EEED2Ev
         U __ZNSt3__113basic_istreamIcNS_11char_traitsIcEEE6sentryC1ERS3_b
         U __ZNSt3__113basic_istreamIcNS_11char_traitsIcEEED0Ev
         U __ZNSt3__113basic_istreamIcNS_11char_traitsIcEEED1Ev
         U __ZNSt3__113basic_istreamIcNS_11char_traitsIcEEED2Ev
         U __ZNSt3__113basic_istreamIcNS_11char_traitsIcEEErsERd
         U __ZNSt3__113basic_ostreamIcNS_11char_traitsIcEEE6sentryC1ERS3_
         U __ZNSt3__113basic_ostreamIcNS_11char_traitsIcEEE6sentryD1Ev
         U __ZNSt3__113basic_ostreamIcNS_11char_traitsIcEEED0Ev
         U __ZNSt3__113basic_ostreamIcNS_11char_traitsIcEEED1Ev
         U __ZNSt3__113basic_ostreamIcNS_11char_traitsIcEEED2Ev
         U __ZNSt3__113basic_ostreamIcNS_11char_traitsIcEEElsEj
         U __ZNSt3__113basic_ostreamIcNS_11char_traitsIcEEElsEl
228c02ec t __ZNSt3__113unordered_mapINS_12basic_stringIcNS_11char_traitsIcEENS_9allocatorIcEEEEP10MmsCharsetNS_4hashIS6_EENS_8equal_toIS6_EENS4_INS_4pairIKS6_S8_EEEEEixEOS6_
228b4d74 t __ZNSt3__113unordered_mapINS_12basic_stringIcNS_11char_traitsIcEENS_9allocatorIcEEEEP9MmsHeaderNS_4hashIS6_EENS_8equal_toIS6_EENS4_INS_4pairIKS6_S8_EEEEEixEOS6_
228b56fc t __ZNSt3__113unordered_mapINS_12basic_stringIcNS_11char_traitsIcEENS_9allocatorIcEEEEPK17MmsHeaderEncodingNS_4hashIS6_EENS_8equal_toIS6_EENS4_INS_4pairIKS6_S9_EEEEEixERSF_
228b2e30 t __ZNSt3__113unordered_mapINS_12basic_stringIcNS_11char_traitsIcEENS_9allocatorIcEEEEhNS_4hashIS6_EENS_8equal_toIS6_EENS4_INS_4pairIKS6_hEEEEED1Ev
228b2e4c t __ZNSt3__113unordered_mapINS_12basic_stringIcNS_11char_traitsIcEENS_9allocatorIcEEEEhNS_4hashIS6_EENS_8equal_toIS6_EENS4_INS_4pairIKS6_hEEEEEixERSC_
228c02bc t __ZNSt3__113unordered_mapIjP10MmsCharsetNS_4hashIjEENS_8equal_toIjEENS_9allocatorINS_4pairIKjS2_EEEEEixERS9_
228b4558 t __ZNSt3__114__split_bufferI19MmsEnumerationValueRNS_9allocatorIS1_EEED2Ev
228ce6cc t __ZNSt3__114__split_bufferIN3ctu2cf11CFSharedRefIKvEERNS_9allocatorIS5_EEED2Ev
228eb2a0 t __ZNSt3__114__split_bufferIN8dispatch5blockIU13block_pointerFvP12NSDictionaryEEERNS_9allocatorIS7_EEED2Ev
228b72d4 t __ZNSt3__114__split_bufferIP11MmsMimePartRNS_9allocatorIS2_EEED2Ev
228b4ed4 t __ZNSt3__114__split_bufferIP9MmsHeaderRNS_9allocatorIS2_EEED2Ev
228b5820 t __ZNSt3__114__split_bufferIPK17MmsHeaderEncodingRNS_9allocatorIS3_EEED2Ev
228ce7c4 t __ZNSt3__114__split_bufferIPKvRNS_9allocatorIS2_EEED2Ev
         U __ZNSt3__115basic_streambufIcNS_11char_traitsIcEEE4syncEv
         U __ZNSt3__115basic_streambufIcNS_11char_traitsIcEEE5imbueERKNS_6localeE
         U __ZNSt3__115basic_streambufIcNS_11char_traitsIcEEE5uflowEv
         U __ZNSt3__115basic_streambufIcNS_11char_traitsIcEEE6setbufEPci
         U __ZNSt3__115basic_streambufIcNS_11char_traitsIcEEE6xsgetnEPci
         U __ZNSt3__115basic_streambufIcNS_11char_traitsIcEEE6xsputnEPKci
         U __ZNSt3__115basic_streambufIcNS_11char_traitsIcEEE9showmanycEv
         U __ZNSt3__115basic_streambufIcNS_11char_traitsIcEEEC2Ev
         U __ZNSt3__115basic_streambufIcNS_11char_traitsIcEEED2Ev
228ed058 t __ZNSt3__115basic_streambufIcNS_11char_traitsIcEEED2Ev$shim
228b3b08 t __ZNSt3__115basic_stringbufIcNS_11char_traitsIcEENS_9allocatorIcEEE3strERKNS_12basic_stringIcS2_S4_EE
228b31f0 t __ZNSt3__115basic_stringbufIcNS_11char_traitsIcEENS_9allocatorIcEEE7seekoffExNS_8ios_base7seekdirEj
228b3374 t __ZNSt3__115basic_stringbufIcNS_11char_traitsIcEENS_9allocatorIcEEE7seekposENS_4fposI11__mbstate_tEEj
228b343c t __ZNSt3__115basic_stringbufIcNS_11char_traitsIcEENS_9allocatorIcEEE8overflowEi
228b33dc t __ZNSt3__115basic_stringbufIcNS_11char_traitsIcEENS_9allocatorIcEEE9pbackfailEi
228b33ac t __ZNSt3__115basic_stringbufIcNS_11char_traitsIcEENS_9allocatorIcEEE9underflowEv
228b31c0 t __ZNSt3__115basic_stringbufIcNS_11char_traitsIcEENS_9allocatorIcEEED0Ev
228b3194 t __ZNSt3__115basic_stringbufIcNS_11char_traitsIcEENS_9allocatorIcEEED1Ev
228b3c60 t __ZNSt3__116__pad_and_outputIcNS_11char_traitsIcEEEENS_19ostreambuf_iteratorIT_T0_EES6_PKS4_S8_S8_RNS_8ios_baseES4_
228c80d0 t __ZNSt3__118__tree_left_rotateIPNS_16__tree_node_baseIPvEEEEvT_
228c80f4 t __ZNSt3__119__tree_right_rotateIPNS_16__tree_node_baseIPvEEEEvT_
228b7a70 t __ZNSt3__119basic_istringstreamIcNS_11char_traitsIcEENS_9allocatorIcEEED0Ev
228b7a10 t __ZNSt3__119basic_istringstreamIcNS_11char_traitsIcEENS_9allocatorIcEEED1Ev
228b30bc t __ZNSt3__119basic_ostringstreamIcNS_11char_traitsIcEENS_9allocatorIcEEED0Ev
228b2e84 t __ZNSt3__119basic_ostringstreamIcNS_11char_traitsIcEENS_9allocatorIcEEED1Ev
228b3814 t __ZNSt3__121__murmur2_or_cityhashImLm32EEclEPKvm
228b3ba4 t __ZNSt3__124__put_character_sequenceIcNS_11char_traitsIcEEEERNS_13basic_ostreamIT_T0_EES7_PKS4_m
228c803c t __ZNSt3__127__tree_balance_after_insertIPNS_16__tree_node_baseIPvEEEEvT_S5_
228ce7f0 t __ZNSt3__13mapINS_12basic_stringIcNS_11char_traitsIcEENS_9allocatorIcEEEEN8dispatch5blockIU13block_pointerFvN3xpc4dictEEEENS_4lessIS6_EENS4_INS_4pairIKS6_SD_EEEEE16__find_equal_keyERPNS_16__tree_node_baseIPvEERSH_
228ce4f4 t __ZNSt3__13mapINS_12basic_stringIcNS_11char_traitsIcEENS_9allocatorIcEEEEN8dispatch5blockIU13block_pointerFvN3xpc4dictEEEENS_4lessIS6_EENS4_INS_4pairIKS6_SD_EEEEEixEOS6_
228d8170 t __ZNSt3__13mapIiN8dispatch5blockIU13block_pointerFvPK14__CFDictionaryEEENS_4lessIiEENS_9allocatorINS_4pairIKiS8_EEEEE16__find_equal_keyERPNS_16__tree_node_baseIPvEERSD_
228d7ea8 t __ZNSt3__13mapIiN8dispatch5blockIU13block_pointerFvPK14__CFDictionaryEEENS_4lessIiEENS_9allocatorINS_4pairIKiS8_EEEEEixEOi
         U __ZNSt3__15ctypeIcE2idE
228cea20 t __ZNSt3__16__treeINS_12__value_typeINS_12basic_stringIcNS_11char_traitsIcEENS_9allocatorIcEEEEN8dispatch5blockIU13block_pointerFvN3xpc4dictEEEEEENS_19__map_value_compareIS7_SF_NS_4lessIS7_EELb1EEENS5_ISF_EEE13__lower_boundIS7_EENS_15__tree_iteratorISF_PNS_11__tree_nodeISF_PvEEiEERKT_SR_SR_
228ce92c t __ZNSt3__16__treeINS_12__value_typeINS_12basic_stringIcNS_11char_traitsIcEENS_9allocatorIcEEEEN8dispatch5blockIU13block_pointerFvN3xpc4dictEEEEEENS_19__map_value_compareIS7_SF_NS_4lessIS7_EELb1EEENS5_ISF_EEE14__erase_uniqueIS7_EEmRKT_
228ce8fc t __ZNSt3__16__treeINS_12__value_typeINS_12basic_stringIcNS_11char_traitsIcEENS_9allocatorIcEEEEN8dispatch5blockIU13block_pointerFvN3xpc4dictEEEEEENS_19__map_value_compareIS7_SF_NS_4lessIS7_EELb1EEENS5_ISF_EEE16__insert_node_atEPNS_16__tree_node_baseIPvEERSP_SP_
228ce94c t __ZNSt3__16__treeINS_12__value_typeINS_12basic_stringIcNS_11char_traitsIcEENS_9allocatorIcEEEEN8dispatch5blockIU13block_pointerFvN3xpc4dictEEEEEENS_19__map_value_compareIS7_SF_NS_4lessIS7_EELb1EEENS5_ISF_EEE4findIS7_EENS_15__tree_iteratorISF_PNS_11__tree_nodeISF_PvEEiEERKT_
228ce9cc t __ZNSt3__16__treeINS_12__value_typeINS_12basic_stringIcNS_11char_traitsIcEENS_9allocatorIcEEEEN8dispatch5blockIU13block_pointerFvN3xpc4dictEEEEEENS_19__map_value_compareIS7_SF_NS_4lessIS7_EELb1EEENS5_ISF_EEE5eraseENS_21__tree_const_iteratorISF_PNS_11__tree_nodeISF_PvEEiEE
228d7f20 t __ZNSt3__16__treeINS_12__value_typeINS_12basic_stringIcNS_11char_traitsIcEENS_9allocatorIcEEEEN8dispatch5blockIU13block_pointerFvN3xpc4dictEEEEEENS_19__map_value_compareIS7_SF_NS_4lessIS7_EELb1EEENS5_ISF_EEE7destroyEPNS_11__tree_nodeISF_PvEE
228d80b8 t __ZNSt3__16__treeINS_12__value_typeIiN8dispatch5blockIU13block_pointerFvPK14__CFDictionaryEEEEENS_19__map_value_compareIiSA_NS_4lessIiEELb1EEENS_9allocatorISA_EEE14__erase_uniqueIiEEmRKT_
228d81b4 t __ZNSt3__16__treeINS_12__value_typeIiN8dispatch5blockIU13block_pointerFvPK14__CFDictionaryEEEEENS_19__map_value_compareIiSA_NS_4lessIiEELb1EEENS_9allocatorISA_EEE16__insert_node_atEPNS_16__tree_node_baseIPvEERSL_SL_
228d80d8 t __ZNSt3__16__treeINS_12__value_typeIiN8dispatch5blockIU13block_pointerFvPK14__CFDictionaryEEEEENS_19__map_value_compareIiSA_NS_4lessIiEELb1EEENS_9allocatorISA_EEE4findIiEENS_15__tree_iteratorISA_PNS_11__tree_nodeISA_PvEEiEERKT_
228d8124 t __ZNSt3__16__treeINS_12__value_typeIiN8dispatch5blockIU13block_pointerFvPK14__CFDictionaryEEEEENS_19__map_value_compareIiSA_NS_4lessIiEELb1EEENS_9allocatorISA_EEE5eraseENS_21__tree_const_iteratorISA_PNS_11__tree_nodeISA_PvEEiEE
228d7eec t __ZNSt3__16__treeINS_12__value_typeIiN8dispatch5blockIU13block_pointerFvPK14__CFDictionaryEEEEENS_19__map_value_compareIiSA_NS_4lessIiEELb1EEENS_9allocatorISA_EEE7destroyEPNS_11__tree_nodeISA_PvEE
         U __ZNSt3__16localeD1Ev
228b4420 t __ZNSt3__16vectorI19MmsEnumerationValueNS_9allocatorIS1_EEE21__push_back_slow_pathIS1_EEvOT_
228b44dc t __ZNSt3__16vectorI19MmsEnumerationValueNS_9allocatorIS1_EEE26__swap_out_circular_bufferERNS_14__split_bufferIS1_RS3_EE
228ce5c8 t __ZNSt3__16vectorIN3ctu2cf11CFSharedRefIKvEENS_9allocatorIS5_EEE24__emplace_back_slow_pathIJRS5_EEEvDpOT_
228ce670 t __ZNSt3__16vectorIN3ctu2cf11CFSharedRefIKvEENS_9allocatorIS5_EEE26__swap_out_circular_bufferERNS_14__split_bufferIS5_RS7_EE
228eb19c t __ZNSt3__16vectorIN8dispatch5blockIU13block_pointerFvP12NSDictionaryEEENS_9allocatorIS7_EEE21__push_back_slow_pathIRKS7_EEvOT_
228eb244 t __ZNSt3__16vectorIN8dispatch5blockIU13block_pointerFvP12NSDictionaryEEENS_9allocatorIS7_EEE26__swap_out_circular_bufferERNS_14__split_bufferIS7_RS9_EE
228b1a04 t __ZNSt3__16vectorINS_12basic_stringIcNS_11char_traitsIcEENS_9allocatorIcEEEENS4_IS6_EEE8allocateEm
228b1938 t __ZNSt3__16vectorINS_12basic_stringIcNS_11char_traitsIcEENS_9allocatorIcEEEENS4_IS6_EEED1Ev
228b721c t __ZNSt3__16vectorIP11MmsMimePartNS_9allocatorIS2_EEE21__push_back_slow_pathIRKS2_EEvOT_
228b4e1c t __ZNSt3__16vectorIP9MmsHeaderNS_9allocatorIS2_EEE21__push_back_slow_pathIRKS2_EEvOT_
228b5690 t __ZNSt3__16vectorIPK17MmsHeaderEncodingNS_9allocatorIS3_EEE6resizeEm
228b56c4 t __ZNSt3__16vectorIPK17MmsHeaderEncodingNS_9allocatorIS3_EEE6resizeEmRKS3_
228b5734 t __ZNSt3__16vectorIPK17MmsHeaderEncodingNS_9allocatorIS3_EEE8__appendEm
228b584c t __ZNSt3__16vectorIPK17MmsHeaderEncodingNS_9allocatorIS3_EEE8__appendEmRKS3_
228ce70c t __ZNSt3__16vectorIPKvNS_9allocatorIS2_EEE24__emplace_back_slow_pathIJS2_EEEvDpOT_
228ececc t __ZNSt3__16vectorIPKvNS_9allocatorIS2_EEE8allocateEm
228ece98 t __ZNSt3__16vectorIPKvNS_9allocatorIS2_EEEC2Em
228b7c54 t __ZNSt3__16vectorIcNS_9allocatorIcEEE10deallocateEv
228b7c78 t __ZNSt3__16vectorIcNS_9allocatorIcEEE21__push_back_slow_pathIcEEvOT_
228b7828 t __ZNSt3__16vectorIcNS_9allocatorIcEEE6assignIPKcEENS_9enable_ifIXaasr21__is_forward_iteratorIT_EE5valuesr16is_constructibleIcNS_15iterator_traitsIS8_E9referenceEEE5valueEvE4typeES8_S8_
228b77c8 t __ZNSt3__16vectorIcNS_9allocatorIcEEE7reserveEm
228b71d0 t __ZNSt3__16vectorIcNS_9allocatorIcEEE8allocateEm
228b7c18 t __ZNSt3__16vectorIcNS_9allocatorIcEEEC2IPKcEET_NS_9enable_ifIXaasr21__is_forward_iteratorIS7_EE5valuesr16is_constructibleIcNS_15iterator_traitsIS7_E9referenceEEE5valueES7_E4typeE
         U __ZNSt3__18ios_base4initEPv
         U __ZNSt3__18ios_base5clearEj
         U __ZNSt3__19basic_iosIcNS_11char_traitsIcEEED2Ev
228ed04c t __ZNSt3__19basic_iosIcNS_11char_traitsIcEEED2Ev$shim
228b2ee4 t __ZNSt3__1plIcNS_11char_traitsIcEENS_9allocatorIcEEEENS_12basic_stringIT_T0_T1_EERKS9_PKS6_
228b78e8 t __ZNSt3__1rsIcNS_11char_traitsIcEENS_9allocatorIcEEEERNS_13basic_istreamIT_T0_EES9_RNS_12basic_stringIS6_S7_T1_EE
360a2870 d __ZTCNSt3__119basic_istringstreamIcNS_11char_traitsIcEENS_9allocatorIcEEEE0_NS_13basic_istreamIcS2_EE
360a27b0 d __ZTCNSt3__119basic_ostringstreamIcNS_11char_traitsIcEENS_9allocatorIcEEEE0_NS_13basic_ostreamIcS2_EE
343b8c8c s __ZTI10MmsMessage
343b8cac s __ZTI11MmsMimePart
343b8c50 s __ZTI13MmsDateHeader
343b8b1c s __ZTI13MmsFromHeader
343b89e8 s __ZTI14MmsContentType
343b948c s __ZTI14MmsEmptyHeader
343b8ad4 s __ZTI14MmsYesNoHeader
343b8714 s __ZTI15MmsBinaryHeader
343b9670 s __ZTI15MmsExpiryHeader
343b8e2c s __ZTI15MmsSimpleHeader
343b8fa0 s __ZTI15MmsStringHeader
343b9564 s __ZTI16MmsCharsetHeader
343b8c38 s __ZTI16MmsIntegerHeader
343b951c s __ZTI16MmsMMFlagsHeader
343b8fd0 s __ZTI16MmsSubjectHeader
343b8c44 s __ZTI16MmsVersionHeader
343b8b7c s __ZTI18MmsHeaderContainer
343b8fac s __ZTI19MmsTextStringHeader
343b94d4 s __ZTI20MmsConstrainedHeader
343b8a44 s __ZTI20MmsContentTypeHeader
343b8ac8 s __ZTI20MmsEnumerationHeader
343b96b8 s __ZTI20MmsIndexedDateHeader
343b89f0 s __ZTI21MmsEncodedContentType
343b89fc s __ZTI21MmsGeneralContentType
343b95ac s __ZTI21MmsMessageClassHeader
343b95dc s __ZTI21MmsParameterContainer
343b8fb8 s __ZTI21MmsQuotedStringHeader
343b8fc4 s __ZTI22MmsEncodedStringHeader
343b9628 s __ZTI27MmsContentDispositionHeader
343b8fdc s __ZTI29MmsIndexedEncodedStringHeader
343b8b28 s __ZTI9MmsHeader
         U __ZTINSt3__113basic_istreamIcNS_11char_traitsIcEEEE
         U __ZTINSt3__113basic_ostreamIcNS_11char_traitsIcEEEE
         U __ZTINSt3__115basic_streambufIcNS_11char_traitsIcEEEE
360a2824 D __ZTINSt3__115basic_stringbufIcNS_11char_traitsIcEENS_9allocatorIcEEEE
360a2898 D __ZTINSt3__119basic_istringstreamIcNS_11char_traitsIcEENS_9allocatorIcEEEE
360a27d8 D __ZTINSt3__119basic_ostringstreamIcNS_11char_traitsIcEENS_9allocatorIcEEEE
22902c03 s __ZTS10MmsMessage
22902c60 s __ZTS11MmsMimePart
22902bf3 s __ZTS13MmsDateHeader
22902b71 s __ZTS13MmsFromHeader
22902ac0 s __ZTS14MmsContentType
22902d70 s __ZTS14MmsEmptyHeader
22902b60 s __ZTS14MmsYesNoHeader
229029b0 s __ZTS15MmsBinaryHeader
229030f0 s __ZTS15MmsExpiryHeader
22902c90 s __ZTS15MmsSimpleHeader
22902cb0 s __ZTS15MmsStringHeader
22902df0 s __ZTS16MmsCharsetHeader
22902bc0 s __ZTS16MmsIntegerHeader
22902db0 s __ZTS16MmsMMFlagsHeader
22902d30 s __ZTS16MmsSubjectHeader
22902be0 s __ZTS16MmsVersionHeader
22902b90 s __ZTS18MmsHeaderContainer
22902cd0 s __ZTS19MmsTextStringHeader
22902d90 s __ZTS20MmsConstrainedHeader
22902b20 s __ZTS20MmsContentTypeHeader
22902b40 s __ZTS20MmsEnumerationHeader
22903110 s __ZTS20MmsIndexedDateHeader
22902ae0 s __ZTS21MmsEncodedContentType
22902b00 s __ZTS21MmsGeneralContentType
22903020 s __ZTS21MmsMessageClassHeader
22903040 s __ZTS21MmsParameterContainer
22902cf0 s __ZTS21MmsQuotedStringHeader
22902d10 s __ZTS22MmsEncodedStringHeader
229030d0 s __ZTS27MmsContentDispositionHeader
22902d50 s __ZTS29MmsIndexedEncodedStringHeader
22902b81 s __ZTS9MmsHeader
22902a20 S __ZTSNSt3__115basic_stringbufIcNS_11char_traitsIcEENS_9allocatorIcEEEE
22902c10 S __ZTSNSt3__119basic_istringstreamIcNS_11char_traitsIcEENS_9allocatorIcEEEE
229029d0 S __ZTSNSt3__119basic_ostringstreamIcNS_11char_traitsIcEENS_9allocatorIcEEEE
360a2858 d __ZTTNSt3__119basic_istringstreamIcNS_11char_traitsIcEENS_9allocatorIcEEEE
360a2798 d __ZTTNSt3__119basic_ostringstreamIcNS_11char_traitsIcEENS_9allocatorIcEEEE
343b8c78 s __ZTV10MmsMessage
343b8c98 s __ZTV11MmsMimePart
343b8bfc s __ZTV13MmsDateHeader
343b8ae0 s __ZTV13MmsFromHeader
343b8720 s __ZTV14MmsContentType
343b9450 s __ZTV14MmsEmptyHeader
343b8a8c s __ZTV14MmsYesNoHeader
343b86d8 s __ZTV15MmsBinaryHeader
343b9634 s __ZTV15MmsExpiryHeader
343b8df4 s __ZTV15MmsSimpleHeader
343b8e38 s __ZTV15MmsStringHeader
343b9528 s __ZTV16MmsCharsetHeader
343b8b84 s __ZTV16MmsIntegerHeader
343b94e0 s __ZTV16MmsMMFlagsHeader
343b8f28 s __ZTV16MmsSubjectHeader
343b8bc0 s __ZTV16MmsVersionHeader
343b8b68 s __ZTV18MmsHeaderContainer
343b8e74 s __ZTV19MmsTextStringHeader
343b9498 s __ZTV20MmsConstrainedHeader
343b8a08 s __ZTV20MmsContentTypeHeader
343b8a50 s __ZTV20MmsEnumerationHeader
343b967c s __ZTV20MmsIndexedDateHeader
343b89a8 s __ZTV21MmsEncodedContentType
343b89c8 s __ZTV21MmsGeneralContentType
343b9570 s __ZTV21MmsMessageClassHeader
343b95c8 s __ZTV21MmsParameterContainer
343b8eb0 s __ZTV21MmsQuotedStringHeader
343b8eec s __ZTV22MmsEncodedStringHeader
343b95ec s __ZTV27MmsContentDispositionHeader
343b8f64 s __ZTV29MmsIndexedEncodedStringHeader
228ea208 t ___22-[CTCellularData init]_block_invoke
228ea26c t ___22-[CTCellularData init]_block_invoke_2
228ea99c t ___23-[CTSubscriber dealloc]_block_invoke
228ea55c t ___33-[CTCellularData restrictedState]_block_invoke
228eb00c t ___50-[CTSubscriber authenticateWithInfo:handleResult:]_block_invoke
228c4288 t ___64-[CTTelephonyNetworkInfo postCellularProviderUpdatesIfNecessary]_block_invoke
228c77b0 t ___65-[CTCallCenter handleNotificationFromConnection:ofType:withInfo:]_block_invoke
228c7954 t ___71-[CTCallCenter broadcastCallStateChangesIfNeededWithFailureLogMessage:]_block_invoke
228c41ac t ___75-[CTTelephonyNetworkInfo handleNotificationFromConnection:ofType:withInfo:]_block_invoke
         U ___CFConstantStringClassReference
228a8a84 t ___CTTelephonyCenterGetDispatchQueue_block_invoke
228a89f8 t ___CTTelephonyCenterGetRunLoop_block_invoke
228d5ca4 t ____CTServerConnectionAddToRunLoop_block_invoke
228d5a58 t ____CTServerConnectionCreateWithIdentifier_block_invoke
228d5a68 t ____CTServerConnectionCreateWithIdentifier_block_invoke_2
228d5a70 t ____CTServerConnectionCreateWithIdentifier_block_invoke_3
228e88e0 t ____CTServerConnectionGetVoiceLinkQualityMetric_block_invoke
228cda20 t ____CTServerConnectionIsValidEmergencyNumber_block_invoke
228d6200 t ____CTServerConnectionRegisterForEvent_block_invoke
228cd494 t ____CTServerConnectionRegisterSilentHoursCallback_block_invoke
228cd5fc t ____CTServerConnectionRegisterSilentHoursCallback_block_invoke10
228d5e40 t ____CTServerConnectionSendBarrier_block_invoke
228d5d40 t ____CTServerConnectionSetTargetQueue_block_invoke
228d60e4 t ____CTServerConnectionUnregisterForEvent_block_invoke
228cd75c t ____CTServerConnectionUnregisterSilentHoursCallback_block_invoke
228d5708 t ____Z24sCTServerConnectionStartP20__CTServerConnection_block_invoke
228d72bc t ____ZL12_XpcCallbackPvP13CTServerState_block_invoke
228d72e0 t ____ZL12_XpcCallbackPvP13CTServerState_block_invoke_2
228d7dc4 t ____ZL19DispatchReEstablishP22__CFNotificationCenterPvPK10__CFStringPKvPK14__CFDictionary_block_invoke
228d7e78 t ____ZL19DispatchReEstablishP22__CFNotificationCenterPvPK10__CFStringPKvPK14__CFDictionary_block_invoke_2
228d735c t ____ZL19sHandleNotificationP13CTServerStateN3xpc4dictE_block_invoke
228d7c00 t ____ZL19sHandleNotificationP13CTServerStateN3xpc4dictE_block_invoke_2
228a9370 t ____ZL22_SignificantTimeChangeP22__CFNotificationCenterPvPK10__CFStringPKvPK14__CFDictionary_block_invoke
228d6ed0 t ____ZL24_CTServerConnectXpc_syncP13CTServerStateP16dispatch_queue_sU13block_pointerFvvE_block_invoke
228d6d78 t ____ZL26_CTServerConnectionDestroyPKv_block_invoke
228d6d90 t ____ZL26_CTServerConnectionDestroyPKv_block_invoke_2
228d6e94 t ____ZL26_CTServerConnectionDestroyPKv_block_invoke_3
228d7ca8 t ____ZL30_CTServerConnectionReEstablishP20__CTServerConnection_block_invoke
228a9348 t ____ZL32CTTelephonyCenterCreateOnRunloopP11__CFRunLoopPK10__CFString_block_invoke
228a8f14 t ____ZL38CTTelephonyCenterCreateOnDispatchQueueP16dispatch_queue_s_block_invoke
228d50e8 t ____ZNK13CTServerState21dispatchToClient_syncEU13block_pointerFvvE_block_invoke
228d5250 t ____ZNK13CTServerState21sendNotification_syncE7CTEventPK10__CFStringPK14__CFDictionary_block_invoke
228d5294 t ____ZNK13CTServerState21sendNotification_syncE7CTEventPK10__CFStringPK14__CFDictionary_block_invoke13
228a7e20 t __dbCorruptionHandler
228a5f4c t __endActiveCallAndAnswer
228a5fec t __endHeldCallAndAnswer
228de3cc t __is3DigitMNCWithIMSI
36af4f70 s __kCTCallClass
36af4ef4 s __kCTCallRegisterClass
36af4f60 s __kCTCallTypeID
360a2bb8 b __kCallHistoryPropertyIDs
